
WcounterA.elf:     file format elf32-avr

Sections:
Idx Name          Size      VMA       LMA       File off  Algn
  0 .data         00000144  00800100  0000242e  000024c2  2**0
                  CONTENTS, ALLOC, LOAD, DATA
  1 .text         0000242e  00000000  00000000  00000094  2**1
                  CONTENTS, ALLOC, LOAD, READONLY, CODE
  2 .bss          00000352  00800244  00800244  00002606  2**0
                  ALLOC
  3 .comment      0000005c  00000000  00000000  00002606  2**0
                  CONTENTS, READONLY

Disassembly of section .text:

00000000 <__vectors>:
       0:	0c 94 be 00 	jmp	0x17c	; 0x17c <__ctors_end>
       4:	0c 94 db 00 	jmp	0x1b6	; 0x1b6 <__bad_interrupt>
       8:	0c 94 db 00 	jmp	0x1b6	; 0x1b6 <__bad_interrupt>
       c:	0c 94 db 00 	jmp	0x1b6	; 0x1b6 <__bad_interrupt>
      10:	0c 94 db 00 	jmp	0x1b6	; 0x1b6 <__bad_interrupt>
      14:	0c 94 db 00 	jmp	0x1b6	; 0x1b6 <__bad_interrupt>
      18:	0c 94 db 00 	jmp	0x1b6	; 0x1b6 <__bad_interrupt>
      1c:	0c 94 db 00 	jmp	0x1b6	; 0x1b6 <__bad_interrupt>
      20:	0c 94 db 00 	jmp	0x1b6	; 0x1b6 <__bad_interrupt>
      24:	0c 94 db 00 	jmp	0x1b6	; 0x1b6 <__bad_interrupt>
      28:	0c 94 db 00 	jmp	0x1b6	; 0x1b6 <__bad_interrupt>
      2c:	0c 94 e6 06 	jmp	0xdcc	; 0xdcc <__vector_11>
      30:	0c 94 db 00 	jmp	0x1b6	; 0x1b6 <__bad_interrupt>
      34:	0c 94 db 00 	jmp	0x1b6	; 0x1b6 <__bad_interrupt>
      38:	0c 94 db 00 	jmp	0x1b6	; 0x1b6 <__bad_interrupt>
      3c:	0c 94 db 00 	jmp	0x1b6	; 0x1b6 <__bad_interrupt>
      40:	0c 94 db 00 	jmp	0x1b6	; 0x1b6 <__bad_interrupt>
      44:	0c 94 db 00 	jmp	0x1b6	; 0x1b6 <__bad_interrupt>
      48:	0c 94 db 00 	jmp	0x1b6	; 0x1b6 <__bad_interrupt>
      4c:	0c 94 db 00 	jmp	0x1b6	; 0x1b6 <__bad_interrupt>
      50:	0c 94 db 00 	jmp	0x1b6	; 0x1b6 <__bad_interrupt>
      54:	0c 94 27 01 	jmp	0x24e	; 0x24e <__vector_21>
      58:	0c 94 db 00 	jmp	0x1b6	; 0x1b6 <__bad_interrupt>
      5c:	0c 94 db 00 	jmp	0x1b6	; 0x1b6 <__bad_interrupt>
      60:	0c 94 db 00 	jmp	0x1b6	; 0x1b6 <__bad_interrupt>
      64:	0c 94 db 00 	jmp	0x1b6	; 0x1b6 <__bad_interrupt>

00000068 <__trampolines_end>:
      68:	74 65       	ori	r23, 0x54	; 84
      6a:	73 74       	andi	r23, 0x43	; 67
	...

0000006d <__c.2240>:
      6d:	25 73 28 25 6c 75 29 3a 20 25 53 00                 %s(%lu): %S.

00000079 <__c.2242>:
      79:	4e 6f 74 20 63 6f 6e 6e 65 63 74 65 64 0a 00        Not connected..

00000088 <__c.2236>:
      88:	25 73 28 25 6c 75 29 3a 20 25 53 00                 %s(%lu): %S.

00000094 <__c.2238>:
      94:	43 6f 6e 6e 65 63 74 65 64 0a 00                    Connected..

0000009f <__c.2232>:
      9f:	25 73 28 25 6c 75 29 3a 20 25 53 00                 %s(%lu): %S.

000000ab <__c.2234>:
      ab:	74 72 79 20 74 6f 20 63 6f 6e 6e 65 63 74 0a 00     try to connect..

000000bb <__c.2227>:
      bb:	25 73 28 25 6c 75 29 3a 20 25 53 00                 %s(%lu): %S.

000000c7 <__c.2230>:
      c7:	74 72 79 20 74 6f 20 6f 70 65 6e 0a 00              try to open..

000000d4 <__c.2209>:
      d4:	25 73 28 25 6c 75 29 3a 20 25 53 00                 %s(%lu): %S.

000000e0 <__c.2211>:
      e0:	46 61 69 6c 0a 00                                   Fail..

000000e6 <__c.2201>:
      e6:	63 6f 6e 74 72 6f 6c 00                             control.

000000ee <__c.2232>:
      ee:	64 61 74 61 00                                      data.

000000f3 <__c.2224>:
      f3:	25 73 28 25 6c 75 29 3a 20 25 53 00                 %s(%lu): %S.

000000ff <__c.2226>:
      ff:	6d 61 69 6e 20 63 79 63 6c 65 0a 00                 main cycle..

0000010b <__c.2220>:
     10b:	25 73 28 25 6c 75 29 3a 20 25 53 00                 %s(%lu): %S.

00000117 <__c.2222>:
     117:	73 65 69 0a 00                                      sei..

0000011c <__c.2216>:
     11c:	25 73 28 25 6c 75 29 3a 20 25 53 00                 %s(%lu): %S.

00000128 <__c.2218>:
     128:	6e 65 74 77 6f 72 6b 0a 00                          network..

00000131 <__c.2212>:
     131:	25 73 28 25 6c 75 29 3a 20 25 53 00                 %s(%lu): %S.

0000013d <__c.2214>:
     13d:	61 64 63 0a 00                                      adc..

00000142 <__c.2208>:
     142:	25 73 28 25 6c 75 29 3a 20 25 53 00                 %s(%lu): %S.

0000014e <__c.2210>:
     14e:	73 70 69 0a 00                                      spi..

00000153 <__c.2204>:
     153:	25 73 28 25 6c 75 29 3a 20 25 53 00                 %s(%lu): %S.

0000015f <__c.2206>:
     15f:	63 6c 6f 63 6b 20 25 64 0a 00                       clock %d..

00000169 <__c.2199>:
     169:	25 73 28 25 6c 75 29 3a 20 25 53 00                 %s(%lu): %S.

00000175 <__c.2202>:
     175:	75 61 72 74 0a 00 00                                uart...

0000017c <__ctors_end>:
     17c:	11 24       	eor	r1, r1
     17e:	1f be       	out	0x3f, r1	; 63
     180:	cf ef       	ldi	r28, 0xFF	; 255
     182:	d8 e0       	ldi	r29, 0x08	; 8
     184:	de bf       	out	0x3e, r29	; 62
     186:	cd bf       	out	0x3d, r28	; 61

00000188 <__do_copy_data>:
     188:	12 e0       	ldi	r17, 0x02	; 2
     18a:	a0 e0       	ldi	r26, 0x00	; 0
     18c:	b1 e0       	ldi	r27, 0x01	; 1
     18e:	ee e2       	ldi	r30, 0x2E	; 46
     190:	f4 e2       	ldi	r31, 0x24	; 36
     192:	02 c0       	rjmp	.+4      	; 0x198 <__do_copy_data+0x10>
     194:	05 90       	lpm	r0, Z+
     196:	0d 92       	st	X+, r0
     198:	a4 34       	cpi	r26, 0x44	; 68
     19a:	b1 07       	cpc	r27, r17
     19c:	d9 f7       	brne	.-10     	; 0x194 <__do_copy_data+0xc>

0000019e <__do_clear_bss>:
     19e:	25 e0       	ldi	r18, 0x05	; 5
     1a0:	a4 e4       	ldi	r26, 0x44	; 68
     1a2:	b2 e0       	ldi	r27, 0x02	; 2
     1a4:	01 c0       	rjmp	.+2      	; 0x1a8 <.do_clear_bss_start>

000001a6 <.do_clear_bss_loop>:
     1a6:	1d 92       	st	X+, r1

000001a8 <.do_clear_bss_start>:
     1a8:	a6 39       	cpi	r26, 0x96	; 150
     1aa:	b2 07       	cpc	r27, r18
     1ac:	e1 f7       	brne	.-8      	; 0x1a6 <.do_clear_bss_loop>
     1ae:	0e 94 a1 05 	call	0xb42	; 0xb42 <main>
     1b2:	0c 94 15 12 	jmp	0x242a	; 0x242a <_exit>

000001b6 <__bad_interrupt>:
     1b6:	0c 94 00 00 	jmp	0	; 0x0 <__vectors>

000001ba <setup_ADC>:
     1ba:	cf 93       	push	r28
     1bc:	df 93       	push	r29
     1be:	ec e7       	ldi	r30, 0x7C	; 124
     1c0:	f0 e0       	ldi	r31, 0x00	; 0
     1c2:	80 81       	ld	r24, Z
     1c4:	8f 7d       	andi	r24, 0xDF	; 223
     1c6:	80 83       	st	Z, r24
     1c8:	80 81       	ld	r24, Z
     1ca:	80 64       	ori	r24, 0x40	; 64
     1cc:	80 83       	st	Z, r24
     1ce:	80 81       	ld	r24, Z
     1d0:	80 7f       	andi	r24, 0xF0	; 240
     1d2:	80 83       	st	Z, r24
     1d4:	ca e7       	ldi	r28, 0x7A	; 122
     1d6:	d0 e0       	ldi	r29, 0x00	; 0
     1d8:	88 81       	ld	r24, Y
     1da:	80 68       	ori	r24, 0x80	; 128
     1dc:	88 83       	st	Y, r24
     1de:	88 81       	ld	r24, Y
     1e0:	87 60       	ori	r24, 0x07	; 7
     1e2:	88 83       	st	Y, r24
     1e4:	88 81       	ld	r24, Y
     1e6:	88 60       	ori	r24, 0x08	; 8
     1e8:	88 83       	st	Y, r24
     1ea:	8a e0       	ldi	r24, 0x0A	; 10
     1ec:	90 e0       	ldi	r25, 0x00	; 0
     1ee:	a0 e0       	ldi	r26, 0x00	; 0
     1f0:	b0 e0       	ldi	r27, 0x00	; 0
     1f2:	80 93 60 02 	sts	0x0260, r24
     1f6:	90 93 61 02 	sts	0x0261, r25
     1fa:	a0 93 62 02 	sts	0x0262, r26
     1fe:	b0 93 63 02 	sts	0x0263, r27
     202:	0e 94 24 07 	call	0xe48	; 0xe48 <clock_time>
     206:	60 93 5c 02 	sts	0x025C, r22
     20a:	70 93 5d 02 	sts	0x025D, r23
     20e:	80 93 5e 02 	sts	0x025E, r24
     212:	90 93 5f 02 	sts	0x025F, r25
     216:	84 e6       	ldi	r24, 0x64	; 100
     218:	90 e0       	ldi	r25, 0x00	; 0
     21a:	a0 e0       	ldi	r26, 0x00	; 0
     21c:	b0 e0       	ldi	r27, 0x00	; 0
     21e:	80 93 58 02 	sts	0x0258, r24
     222:	90 93 59 02 	sts	0x0259, r25
     226:	a0 93 5a 02 	sts	0x025A, r26
     22a:	b0 93 5b 02 	sts	0x025B, r27
     22e:	0e 94 24 07 	call	0xe48	; 0xe48 <clock_time>
     232:	60 93 54 02 	sts	0x0254, r22
     236:	70 93 55 02 	sts	0x0255, r23
     23a:	80 93 56 02 	sts	0x0256, r24
     23e:	90 93 57 02 	sts	0x0257, r25
     242:	88 81       	ld	r24, Y
     244:	80 64       	ori	r24, 0x40	; 64
     246:	88 83       	st	Y, r24
     248:	df 91       	pop	r29
     24a:	cf 91       	pop	r28
     24c:	08 95       	ret

0000024e <__vector_21>:
     24e:	1f 92       	push	r1
     250:	0f 92       	push	r0
     252:	0f b6       	in	r0, 0x3f	; 63
     254:	0f 92       	push	r0
     256:	11 24       	eor	r1, r1
     258:	0f 93       	push	r16
     25a:	1f 93       	push	r17
     25c:	2f 93       	push	r18
     25e:	3f 93       	push	r19
     260:	4f 93       	push	r20
     262:	5f 93       	push	r21
     264:	6f 93       	push	r22
     266:	7f 93       	push	r23
     268:	8f 93       	push	r24
     26a:	9f 93       	push	r25
     26c:	af 93       	push	r26
     26e:	bf 93       	push	r27
     270:	ef 93       	push	r30
     272:	ff 93       	push	r31
     274:	80 91 78 00 	lds	r24, 0x0078
     278:	20 91 79 00 	lds	r18, 0x0079
     27c:	90 e0       	ldi	r25, 0x00	; 0
     27e:	92 2b       	or	r25, r18
     280:	90 93 49 02 	sts	0x0249, r25
     284:	80 93 48 02 	sts	0x0248, r24
     288:	20 91 02 01 	lds	r18, 0x0102
     28c:	30 91 03 01 	lds	r19, 0x0103
     290:	58 2f       	mov	r21, r24
     292:	49 2f       	mov	r20, r25
     294:	28 17       	cp	r18, r24
     296:	39 07       	cpc	r19, r25
     298:	10 f4       	brcc	.+4      	; 0x29e <__vector_21+0x50>
     29a:	52 2f       	mov	r21, r18
     29c:	43 2f       	mov	r20, r19
     29e:	50 93 02 01 	sts	0x0102, r21
     2a2:	40 93 03 01 	sts	0x0103, r20
     2a6:	20 91 46 02 	lds	r18, 0x0246
     2aa:	30 91 47 02 	lds	r19, 0x0247
     2ae:	82 17       	cp	r24, r18
     2b0:	93 07       	cpc	r25, r19
     2b2:	08 f4       	brcc	.+2      	; 0x2b6 <__vector_21+0x68>
     2b4:	c9 01       	movw	r24, r18
     2b6:	90 93 47 02 	sts	0x0247, r25
     2ba:	80 93 46 02 	sts	0x0246, r24
     2be:	0e 94 24 07 	call	0xe48	; 0xe48 <clock_time>
     2c2:	00 91 5c 02 	lds	r16, 0x025C
     2c6:	10 91 5d 02 	lds	r17, 0x025D
     2ca:	20 91 5e 02 	lds	r18, 0x025E
     2ce:	30 91 5f 02 	lds	r19, 0x025F
     2d2:	60 1b       	sub	r22, r16
     2d4:	71 0b       	sbc	r23, r17
     2d6:	82 0b       	sbc	r24, r18
     2d8:	93 0b       	sbc	r25, r19
     2da:	00 91 60 02 	lds	r16, 0x0260
     2de:	10 91 61 02 	lds	r17, 0x0261
     2e2:	20 91 62 02 	lds	r18, 0x0262
     2e6:	30 91 63 02 	lds	r19, 0x0263
     2ea:	60 17       	cp	r22, r16
     2ec:	71 07       	cpc	r23, r17
     2ee:	82 07       	cpc	r24, r18
     2f0:	93 07       	cpc	r25, r19
     2f2:	08 f4       	brcc	.+2      	; 0x2f6 <__vector_21+0xa8>
     2f4:	57 c0       	rjmp	.+174    	; 0x3a4 <__vector_21+0x156>
     2f6:	0e 94 24 07 	call	0xe48	; 0xe48 <clock_time>
     2fa:	60 93 5c 02 	sts	0x025C, r22
     2fe:	70 93 5d 02 	sts	0x025D, r23
     302:	80 93 5e 02 	sts	0x025E, r24
     306:	90 93 5f 02 	sts	0x025F, r25
     30a:	80 91 46 02 	lds	r24, 0x0246
     30e:	90 91 47 02 	lds	r25, 0x0247
     312:	90 93 53 02 	sts	0x0253, r25
     316:	80 93 52 02 	sts	0x0252, r24
     31a:	10 92 47 02 	sts	0x0247, r1
     31e:	10 92 46 02 	sts	0x0246, r1
     322:	80 e0       	ldi	r24, 0x00	; 0
     324:	94 e0       	ldi	r25, 0x04	; 4
     326:	90 93 03 01 	sts	0x0103, r25
     32a:	80 93 02 01 	sts	0x0102, r24
     32e:	0e 94 24 07 	call	0xe48	; 0xe48 <clock_time>
     332:	00 91 54 02 	lds	r16, 0x0254
     336:	10 91 55 02 	lds	r17, 0x0255
     33a:	20 91 56 02 	lds	r18, 0x0256
     33e:	30 91 57 02 	lds	r19, 0x0257
     342:	60 1b       	sub	r22, r16
     344:	71 0b       	sbc	r23, r17
     346:	82 0b       	sbc	r24, r18
     348:	93 0b       	sbc	r25, r19
     34a:	00 91 58 02 	lds	r16, 0x0258
     34e:	10 91 59 02 	lds	r17, 0x0259
     352:	20 91 5a 02 	lds	r18, 0x025A
     356:	30 91 5b 02 	lds	r19, 0x025B
     35a:	60 17       	cp	r22, r16
     35c:	71 07       	cpc	r23, r17
     35e:	82 07       	cpc	r24, r18
     360:	93 07       	cpc	r25, r19
     362:	c0 f1       	brcs	.+112    	; 0x3d4 <__vector_21+0x186>
     364:	0e 94 24 07 	call	0xe48	; 0xe48 <clock_time>
     368:	60 93 54 02 	sts	0x0254, r22
     36c:	70 93 55 02 	sts	0x0255, r23
     370:	80 93 56 02 	sts	0x0256, r24
     374:	90 93 57 02 	sts	0x0257, r25
     378:	80 91 00 01 	lds	r24, 0x0100
     37c:	90 91 01 01 	lds	r25, 0x0101
     380:	60 91 44 02 	lds	r22, 0x0244
     384:	70 91 45 02 	lds	r23, 0x0245
     388:	0e 94 77 0e 	call	0x1cee	; 0x1cee <__udivmodhi4>
     38c:	70 93 53 02 	sts	0x0253, r23
     390:	60 93 52 02 	sts	0x0252, r22
     394:	10 92 01 01 	sts	0x0101, r1
     398:	10 92 00 01 	sts	0x0100, r1
     39c:	10 92 45 02 	sts	0x0245, r1
     3a0:	10 92 44 02 	sts	0x0244, r1
     3a4:	80 91 7a 00 	lds	r24, 0x007A
     3a8:	80 64       	ori	r24, 0x40	; 64
     3aa:	80 93 7a 00 	sts	0x007A, r24
     3ae:	ff 91       	pop	r31
     3b0:	ef 91       	pop	r30
     3b2:	bf 91       	pop	r27
     3b4:	af 91       	pop	r26
     3b6:	9f 91       	pop	r25
     3b8:	8f 91       	pop	r24
     3ba:	7f 91       	pop	r23
     3bc:	6f 91       	pop	r22
     3be:	5f 91       	pop	r21
     3c0:	4f 91       	pop	r20
     3c2:	3f 91       	pop	r19
     3c4:	2f 91       	pop	r18
     3c6:	1f 91       	pop	r17
     3c8:	0f 91       	pop	r16
     3ca:	0f 90       	pop	r0
     3cc:	0f be       	out	0x3f, r0	; 63
     3ce:	0f 90       	pop	r0
     3d0:	1f 90       	pop	r1
     3d2:	18 95       	reti
     3d4:	80 91 00 01 	lds	r24, 0x0100
     3d8:	90 91 01 01 	lds	r25, 0x0101
     3dc:	20 91 52 02 	lds	r18, 0x0252
     3e0:	30 91 53 02 	lds	r19, 0x0253
     3e4:	82 0f       	add	r24, r18
     3e6:	93 1f       	adc	r25, r19
     3e8:	90 93 01 01 	sts	0x0101, r25
     3ec:	80 93 00 01 	sts	0x0100, r24
     3f0:	80 91 44 02 	lds	r24, 0x0244
     3f4:	90 91 45 02 	lds	r25, 0x0245
     3f8:	01 96       	adiw	r24, 0x01	; 1
     3fa:	90 93 45 02 	sts	0x0245, r25
     3fe:	80 93 44 02 	sts	0x0244, r24
     402:	d0 cf       	rjmp	.-96     	; 0x3a4 <__vector_21+0x156>

00000404 <spi_init>:
     404:	2a 9a       	sbi	0x05, 2	; 5
     406:	22 9a       	sbi	0x04, 2	; 4
     408:	28 9a       	sbi	0x05, 0	; 5
     40a:	20 9a       	sbi	0x04, 0	; 4
     40c:	84 b1       	in	r24, 0x04	; 4
     40e:	88 62       	ori	r24, 0x28	; 40
     410:	84 b9       	out	0x04, r24	; 4
     412:	80 e5       	ldi	r24, 0x50	; 80
     414:	8c bd       	out	0x2c, r24	; 44
     416:	8d b5       	in	r24, 0x2d	; 45
     418:	81 60       	ori	r24, 0x01	; 1
     41a:	8d bd       	out	0x2d, r24	; 45
     41c:	08 95       	ret

0000041e <mqtt_message_callback>:
     41e:	5f 93       	push	r21
     420:	4f 93       	push	r20
     422:	7f 93       	push	r23
     424:	6f 93       	push	r22
     426:	89 e6       	ldi	r24, 0x69	; 105
     428:	91 e0       	ldi	r25, 0x01	; 1
     42a:	9f 93       	push	r25
     42c:	8f 93       	push	r24
     42e:	e2 e9       	ldi	r30, 0x92	; 146
     430:	f5 e0       	ldi	r31, 0x05	; 5
     432:	81 81       	ldd	r24, Z+1	; 0x01
     434:	8f 93       	push	r24
     436:	80 81       	ld	r24, Z
     438:	8f 93       	push	r24
     43a:	0e 94 03 0f 	call	0x1e06	; 0x1e06 <fprintf>
     43e:	8d b7       	in	r24, 0x3d	; 61
     440:	9e b7       	in	r25, 0x3e	; 62
     442:	08 96       	adiw	r24, 0x08	; 8
     444:	0f b6       	in	r0, 0x3f	; 63
     446:	f8 94       	cli
     448:	9e bf       	out	0x3e, r25	; 62
     44a:	0f be       	out	0x3f, r0	; 63
     44c:	8d bf       	out	0x3d, r24	; 61
     44e:	08 95       	ret

00000450 <buffer_print>:
     450:	ef 92       	push	r14
     452:	ff 92       	push	r15
     454:	0f 93       	push	r16
     456:	1f 93       	push	r17
     458:	cf 93       	push	r28
     45a:	df 93       	push	r29
     45c:	8b 01       	movw	r16, r22
     45e:	ec 01       	movw	r28, r24
     460:	08 0f       	add	r16, r24
     462:	19 1f       	adc	r17, r25
     464:	80 e7       	ldi	r24, 0x70	; 112
     466:	e8 2e       	mov	r14, r24
     468:	81 e0       	ldi	r24, 0x01	; 1
     46a:	f8 2e       	mov	r15, r24
     46c:	c0 17       	cp	r28, r16
     46e:	d1 07       	cpc	r29, r17
     470:	a1 f0       	breq	.+40     	; 0x49a <buffer_print+0x4a>
     472:	89 91       	ld	r24, Y+
     474:	1f 92       	push	r1
     476:	8f 93       	push	r24
     478:	ff 92       	push	r15
     47a:	ef 92       	push	r14
     47c:	80 91 93 05 	lds	r24, 0x0593
     480:	8f 93       	push	r24
     482:	80 91 92 05 	lds	r24, 0x0592
     486:	8f 93       	push	r24
     488:	0e 94 03 0f 	call	0x1e06	; 0x1e06 <fprintf>
     48c:	0f 90       	pop	r0
     48e:	0f 90       	pop	r0
     490:	0f 90       	pop	r0
     492:	0f 90       	pop	r0
     494:	0f 90       	pop	r0
     496:	0f 90       	pop	r0
     498:	e9 cf       	rjmp	.-46     	; 0x46c <buffer_print+0x1c>
     49a:	60 91 92 05 	lds	r22, 0x0592
     49e:	70 91 93 05 	lds	r23, 0x0593
     4a2:	8a e0       	ldi	r24, 0x0A	; 10
     4a4:	90 e0       	ldi	r25, 0x00	; 0
     4a6:	df 91       	pop	r29
     4a8:	cf 91       	pop	r28
     4aa:	1f 91       	pop	r17
     4ac:	0f 91       	pop	r16
     4ae:	ff 90       	pop	r15
     4b0:	ef 90       	pop	r14
     4b2:	0c 94 30 0f 	jmp	0x1e60	; 0x1e60 <fputc>

000004b6 <mqtt_new_packet>:
     4b6:	cf 92       	push	r12
     4b8:	df 92       	push	r13
     4ba:	ef 92       	push	r14
     4bc:	ff 92       	push	r15
     4be:	0f 93       	push	r16
     4c0:	1f 93       	push	r17
     4c2:	cf 93       	push	r28
     4c4:	df 93       	push	r29
     4c6:	7c 01       	movw	r14, r24
     4c8:	fc 01       	movw	r30, r24
     4ca:	c2 8d       	ldd	r28, Z+26	; 0x1a
     4cc:	d3 8d       	ldd	r29, Z+27	; 0x1b
     4ce:	46 e9       	ldi	r20, 0x96	; 150
     4d0:	50 e0       	ldi	r21, 0x00	; 0
     4d2:	60 e9       	ldi	r22, 0x90	; 144
     4d4:	73 e0       	ldi	r23, 0x03	; 3
     4d6:	0e 94 45 0b 	call	0x168a	; 0x168a <umqtt_circ_pop>
     4da:	6c 01       	movw	r12, r24
     4dc:	0e 94 24 07 	call	0xe48	; 0xe48 <clock_time>
     4e0:	df 92       	push	r13
     4e2:	cf 92       	push	r12
     4e4:	9f 93       	push	r25
     4e6:	8f 93       	push	r24
     4e8:	7f 93       	push	r23
     4ea:	6f 93       	push	r22
     4ec:	0d e1       	ldi	r16, 0x1D	; 29
     4ee:	12 e0       	ldi	r17, 0x02	; 2
     4f0:	1f 93       	push	r17
     4f2:	0f 93       	push	r16
     4f4:	28 e7       	ldi	r18, 0x78	; 120
     4f6:	31 e0       	ldi	r19, 0x01	; 1
     4f8:	3f 93       	push	r19
     4fa:	2f 93       	push	r18
     4fc:	80 91 93 05 	lds	r24, 0x0593
     500:	8f 93       	push	r24
     502:	80 91 92 05 	lds	r24, 0x0592
     506:	8f 93       	push	r24
     508:	0e 94 03 0f 	call	0x1e06	; 0x1e06 <fprintf>
     50c:	b6 01       	movw	r22, r12
     50e:	80 e9       	ldi	r24, 0x90	; 144
     510:	93 e0       	ldi	r25, 0x03	; 3
     512:	0e 94 28 02 	call	0x450	; 0x450 <buffer_print>
     516:	a6 01       	movw	r20, r12
     518:	60 e9       	ldi	r22, 0x90	; 144
     51a:	73 e0       	ldi	r23, 0x03	; 3
     51c:	88 85       	ldd	r24, Y+8	; 0x08
     51e:	0e 94 6d 09 	call	0x12da	; 0x12da <Send>
     522:	2d b7       	in	r18, 0x3d	; 61
     524:	3e b7       	in	r19, 0x3e	; 62
     526:	24 5f       	subi	r18, 0xF4	; 244
     528:	3f 4f       	sbci	r19, 0xFF	; 255
     52a:	0f b6       	in	r0, 0x3f	; 63
     52c:	f8 94       	cli
     52e:	3e bf       	out	0x3e, r19	; 62
     530:	0f be       	out	0x3f, r0	; 63
     532:	2d bf       	out	0x3d, r18	; 61
     534:	81 11       	cpse	r24, r1
     536:	0f c0       	rjmp	.+30     	; 0x556 <mqtt_new_packet+0xa0>
     538:	0e 94 24 07 	call	0xe48	; 0xe48 <clock_time>
     53c:	69 87       	std	Y+9, r22	; 0x09
     53e:	7a 87       	std	Y+10, r23	; 0x0a
     540:	8b 87       	std	Y+11, r24	; 0x0b
     542:	9c 87       	std	Y+12, r25	; 0x0c
     544:	df 91       	pop	r29
     546:	cf 91       	pop	r28
     548:	1f 91       	pop	r17
     54a:	0f 91       	pop	r16
     54c:	ff 90       	pop	r15
     54e:	ef 90       	pop	r14
     550:	df 90       	pop	r13
     552:	cf 90       	pop	r12
     554:	08 95       	ret
     556:	0e 94 24 07 	call	0xe48	; 0xe48 <clock_time>
     55a:	20 ee       	ldi	r18, 0xE0	; 224
     55c:	30 e0       	ldi	r19, 0x00	; 0
     55e:	3f 93       	push	r19
     560:	2f 93       	push	r18
     562:	9f 93       	push	r25
     564:	8f 93       	push	r24
     566:	7f 93       	push	r23
     568:	6f 93       	push	r22
     56a:	1f 93       	push	r17
     56c:	0f 93       	push	r16
     56e:	84 ed       	ldi	r24, 0xD4	; 212
     570:	90 e0       	ldi	r25, 0x00	; 0
     572:	9f 93       	push	r25
     574:	8f 93       	push	r24
     576:	80 91 93 05 	lds	r24, 0x0593
     57a:	8f 93       	push	r24
     57c:	80 91 92 05 	lds	r24, 0x0592
     580:	8f 93       	push	r24
     582:	0e 94 15 0f 	call	0x1e2a	; 0x1e2a <fprintf_P>
     586:	83 e0       	ldi	r24, 0x03	; 3
     588:	f7 01       	movw	r30, r14
     58a:	83 a7       	std	Z+43, r24	; 0x2b
     58c:	88 85       	ldd	r24, Y+8	; 0x08
     58e:	0e 94 9e 08 	call	0x113c	; 0x113c <DisconnectSocket>
     592:	2d b7       	in	r18, 0x3d	; 61
     594:	3e b7       	in	r19, 0x3e	; 62
     596:	24 5f       	subi	r18, 0xF4	; 244
     598:	3f 4f       	sbci	r19, 0xFF	; 255
     59a:	0f b6       	in	r0, 0x3f	; 63
     59c:	f8 94       	cli
     59e:	3e bf       	out	0x3e, r19	; 62
     5a0:	0f be       	out	0x3f, r0	; 63
     5a2:	2d bf       	out	0x3d, r18	; 61
     5a4:	88 85       	ldd	r24, Y+8	; 0x08
     5a6:	df 91       	pop	r29
     5a8:	cf 91       	pop	r28
     5aa:	1f 91       	pop	r17
     5ac:	0f 91       	pop	r16
     5ae:	ff 90       	pop	r15
     5b0:	ef 90       	pop	r14
     5b2:	df 90       	pop	r13
     5b4:	cf 90       	pop	r12
     5b6:	0c 94 38 08 	jmp	0x1070	; 0x1070 <CloseSocket>

000005ba <mqtt_full_topic_P>:
     5ba:	0f 93       	push	r16
     5bc:	1f 93       	push	r17
     5be:	cf 93       	push	r28
     5c0:	df 93       	push	r29
     5c2:	8c 01       	movw	r16, r24
     5c4:	e0 91 04 01 	lds	r30, 0x0104
     5c8:	f0 91 05 01 	lds	r31, 0x0105
     5cc:	62 89       	ldd	r22, Z+18	; 0x12
     5ce:	73 89       	ldd	r23, Z+19	; 0x13
     5d0:	70 93 4b 02 	sts	0x024B, r23
     5d4:	60 93 4a 02 	sts	0x024A, r22
     5d8:	eb 01       	movw	r28, r22
     5da:	09 90       	ld	r0, Y+
     5dc:	00 20       	and	r0, r0
     5de:	e9 f7       	brne	.-6      	; 0x5da <mqtt_full_topic_P+0x20>
     5e0:	21 97       	sbiw	r28, 0x01	; 1
     5e2:	c6 1b       	sub	r28, r22
     5e4:	d7 0b       	sbc	r29, r23
     5e6:	80 e9       	ldi	r24, 0x90	; 144
     5e8:	93 e0       	ldi	r25, 0x03	; 3
     5ea:	0e 94 be 0e 	call	0x1d7c	; 0x1d7c <strcpy>
     5ee:	fe 01       	movw	r30, r28
     5f0:	e0 57       	subi	r30, 0x70	; 112
     5f2:	fc 4f       	sbci	r31, 0xFC	; 252
     5f4:	8f e2       	ldi	r24, 0x2F	; 47
     5f6:	80 83       	st	Z, r24
     5f8:	b8 01       	movw	r22, r16
     5fa:	ce 01       	movw	r24, r28
     5fc:	8f 56       	subi	r24, 0x6F	; 111
     5fe:	9c 4f       	sbci	r25, 0xFC	; 252
     600:	0e 94 ae 0e 	call	0x1d5c	; 0x1d5c <strcpy_P>
     604:	80 e9       	ldi	r24, 0x90	; 144
     606:	93 e0       	ldi	r25, 0x03	; 3
     608:	df 91       	pop	r29
     60a:	cf 91       	pop	r28
     60c:	1f 91       	pop	r17
     60e:	0f 91       	pop	r16
     610:	08 95       	ret

00000612 <mqtt_connected_callback>:
     612:	0f 93       	push	r16
     614:	1f 93       	push	r17
     616:	cf 93       	push	r28
     618:	df 93       	push	r29
     61a:	8c 01       	movw	r16, r24
     61c:	fc 01       	movw	r30, r24
     61e:	c2 8d       	ldd	r28, Z+26	; 0x1a
     620:	d3 8d       	ldd	r29, Z+27	; 0x1b
     622:	86 ee       	ldi	r24, 0xE6	; 230
     624:	90 e0       	ldi	r25, 0x00	; 0
     626:	0e 94 dd 02 	call	0x5ba	; 0x5ba <mqtt_full_topic_P>
     62a:	bc 01       	movw	r22, r24
     62c:	c8 01       	movw	r24, r16
     62e:	0e 94 28 0c 	call	0x1850	; 0x1850 <umqtt_subscribe>
     632:	f8 01       	movw	r30, r16
     634:	20 89       	ldd	r18, Z+16	; 0x10
     636:	31 89       	ldd	r19, Z+17	; 0x11
     638:	a4 ef       	ldi	r26, 0xF4	; 244
     63a:	b1 e0       	ldi	r27, 0x01	; 1
     63c:	0e 94 9f 0e 	call	0x1d3e	; 0x1d3e <__umulhisi3>
     640:	6d 87       	std	Y+13, r22	; 0x0d
     642:	7e 87       	std	Y+14, r23	; 0x0e
     644:	8f 87       	std	Y+15, r24	; 0x0f
     646:	98 8b       	std	Y+16, r25	; 0x10
     648:	0e 94 24 07 	call	0xe48	; 0xe48 <clock_time>
     64c:	69 87       	std	Y+9, r22	; 0x09
     64e:	7a 87       	std	Y+10, r23	; 0x0a
     650:	8b 87       	std	Y+11, r24	; 0x0b
     652:	9c 87       	std	Y+12, r25	; 0x0c
     654:	f8 01       	movw	r30, r16
     656:	20 89       	ldd	r18, Z+16	; 0x10
     658:	31 89       	ldd	r19, Z+17	; 0x11
     65a:	a8 ee       	ldi	r26, 0xE8	; 232
     65c:	b3 e0       	ldi	r27, 0x03	; 3
     65e:	0e 94 9f 0e 	call	0x1d3e	; 0x1d3e <__umulhisi3>
     662:	6d 8b       	std	Y+21, r22	; 0x15
     664:	7e 8b       	std	Y+22, r23	; 0x16
     666:	8f 8b       	std	Y+23, r24	; 0x17
     668:	98 8f       	std	Y+24, r25	; 0x18
     66a:	0e 94 24 07 	call	0xe48	; 0xe48 <clock_time>
     66e:	69 8b       	std	Y+17, r22	; 0x11
     670:	7a 8b       	std	Y+18, r23	; 0x12
     672:	8b 8b       	std	Y+19, r24	; 0x13
     674:	9c 8b       	std	Y+20, r25	; 0x14
     676:	df 91       	pop	r29
     678:	cf 91       	pop	r28
     67a:	1f 91       	pop	r17
     67c:	0f 91       	pop	r16
     67e:	08 95       	ret

00000680 <mqtt_exec_int>:
     680:	8f 92       	push	r8
     682:	9f 92       	push	r9
     684:	af 92       	push	r10
     686:	bf 92       	push	r11
     688:	ef 92       	push	r14
     68a:	ff 92       	push	r15
     68c:	0f 93       	push	r16
     68e:	1f 93       	push	r17
     690:	cf 93       	push	r28
     692:	df 93       	push	r29
     694:	cd b7       	in	r28, 0x3d	; 61
     696:	de b7       	in	r29, 0x3e	; 62
     698:	2c 97       	sbiw	r28, 0x0c	; 12
     69a:	0f b6       	in	r0, 0x3f	; 63
     69c:	f8 94       	cli
     69e:	de bf       	out	0x3e, r29	; 62
     6a0:	0f be       	out	0x3f, r0	; 63
     6a2:	cd bf       	out	0x3d, r28	; 61
     6a4:	8c 01       	movw	r16, r24
     6a6:	fc 01       	movw	r30, r24
     6a8:	e0 80       	ld	r14, Z
     6aa:	f1 80       	ldd	r15, Z+1	; 0x01
     6ac:	80 85       	ldd	r24, Z+8	; 0x08
     6ae:	0e 94 31 08 	call	0x1062	; 0x1062 <SocketState>
     6b2:	88 31       	cpi	r24, 0x18	; 24
     6b4:	09 f4       	brne	.+2      	; 0x6b8 <mqtt_exec_int+0x38>
     6b6:	ad c1       	rjmp	.+858    	; 0xa12 <__stack+0x113>
     6b8:	30 f4       	brcc	.+12     	; 0x6c6 <mqtt_exec_int+0x46>
     6ba:	88 23       	and	r24, r24
     6bc:	49 f0       	breq	.+18     	; 0x6d0 <mqtt_exec_int+0x50>
     6be:	87 31       	cpi	r24, 0x17	; 23
     6c0:	09 f4       	brne	.+2      	; 0x6c4 <mqtt_exec_int+0x44>
     6c2:	a4 c0       	rjmp	.+328    	; 0x80c <mqtt_exec_int+0x18c>
     6c4:	b1 c1       	rjmp	.+866    	; 0xa28 <__stack+0x129>
     6c6:	8a 51       	subi	r24, 0x1A	; 26
     6c8:	84 30       	cpi	r24, 0x04	; 4
     6ca:	08 f0       	brcs	.+2      	; 0x6ce <mqtt_exec_int+0x4e>
     6cc:	ad c1       	rjmp	.+858    	; 0xa28 <__stack+0x129>
     6ce:	a1 c1       	rjmp	.+834    	; 0xa12 <__stack+0x113>
     6d0:	0e 94 24 07 	call	0xe48	; 0xe48 <clock_time>
     6d4:	27 ec       	ldi	r18, 0xC7	; 199
     6d6:	30 e0       	ldi	r19, 0x00	; 0
     6d8:	3f 93       	push	r19
     6da:	2f 93       	push	r18
     6dc:	9f 93       	push	r25
     6de:	8f 93       	push	r24
     6e0:	7f 93       	push	r23
     6e2:	6f 93       	push	r22
     6e4:	8f e0       	ldi	r24, 0x0F	; 15
     6e6:	92 e0       	ldi	r25, 0x02	; 2
     6e8:	9f 93       	push	r25
     6ea:	8f 93       	push	r24
     6ec:	8b eb       	ldi	r24, 0xBB	; 187
     6ee:	90 e0       	ldi	r25, 0x00	; 0
     6f0:	9f 93       	push	r25
     6f2:	8f 93       	push	r24
     6f4:	80 91 93 05 	lds	r24, 0x0593
     6f8:	8f 93       	push	r24
     6fa:	80 91 92 05 	lds	r24, 0x0592
     6fe:	8f 93       	push	r24
     700:	0e 94 15 0f 	call	0x1e2a	; 0x1e2a <fprintf_P>
     704:	40 e0       	ldi	r20, 0x00	; 0
     706:	50 ec       	ldi	r21, 0xC0	; 192
     708:	61 e0       	ldi	r22, 0x01	; 1
     70a:	f8 01       	movw	r30, r16
     70c:	80 85       	ldd	r24, Z+8	; 0x08
     70e:	0e 94 4e 08 	call	0x109c	; 0x109c <OpenSocket>
     712:	0f b6       	in	r0, 0x3f	; 63
     714:	f8 94       	cli
     716:	de bf       	out	0x3e, r29	; 62
     718:	0f be       	out	0x3f, r0	; 63
     71a:	cd bf       	out	0x3d, r28	; 61
     71c:	f8 01       	movw	r30, r16
     71e:	90 85       	ldd	r25, Z+8	; 0x08
     720:	89 13       	cpse	r24, r25
     722:	82 c1       	rjmp	.+772    	; 0xa28 <__stack+0x129>
     724:	83 e0       	ldi	r24, 0x03	; 3
     726:	f7 01       	movw	r30, r14
     728:	83 a7       	std	Z+43, r24	; 0x2b
     72a:	8f e9       	ldi	r24, 0x9F	; 159
     72c:	9f e0       	ldi	r25, 0x0F	; 15
     72e:	01 97       	sbiw	r24, 0x01	; 1
     730:	f1 f7       	brne	.-4      	; 0x72e <mqtt_exec_int+0xae>
     732:	00 c0       	rjmp	.+0      	; 0x734 <mqtt_exec_int+0xb4>
     734:	00 00       	nop
     736:	0e 94 24 07 	call	0xe48	; 0xe48 <clock_time>
     73a:	2b ea       	ldi	r18, 0xAB	; 171
     73c:	30 e0       	ldi	r19, 0x00	; 0
     73e:	3f 93       	push	r19
     740:	2f 93       	push	r18
     742:	9f 93       	push	r25
     744:	8f 93       	push	r24
     746:	7f 93       	push	r23
     748:	6f 93       	push	r22
     74a:	9f e0       	ldi	r25, 0x0F	; 15
     74c:	e9 2e       	mov	r14, r25
     74e:	92 e0       	ldi	r25, 0x02	; 2
     750:	f9 2e       	mov	r15, r25
     752:	ff 92       	push	r15
     754:	ef 92       	push	r14
     756:	8f e9       	ldi	r24, 0x9F	; 159
     758:	90 e0       	ldi	r25, 0x00	; 0
     75a:	9f 93       	push	r25
     75c:	8f 93       	push	r24
     75e:	80 91 93 05 	lds	r24, 0x0593
     762:	8f 93       	push	r24
     764:	80 91 92 05 	lds	r24, 0x0592
     768:	8f 93       	push	r24
     76a:	0e 94 15 0f 	call	0x1e2a	; 0x1e2a <fprintf_P>
     76e:	f8 01       	movw	r30, r16
     770:	46 81       	ldd	r20, Z+6	; 0x06
     772:	57 81       	ldd	r21, Z+7	; 0x07
     774:	b8 01       	movw	r22, r16
     776:	6e 5f       	subi	r22, 0xFE	; 254
     778:	7f 4f       	sbci	r23, 0xFF	; 255
     77a:	80 85       	ldd	r24, Z+8	; 0x08
     77c:	0e 94 b4 08 	call	0x1168	; 0x1168 <Connect>
     780:	0f b6       	in	r0, 0x3f	; 63
     782:	f8 94       	cli
     784:	de bf       	out	0x3e, r29	; 62
     786:	0f be       	out	0x3f, r0	; 63
     788:	cd bf       	out	0x3d, r28	; 61
     78a:	81 11       	cpse	r24, r1
     78c:	19 c0       	rjmp	.+50     	; 0x7c0 <mqtt_exec_int+0x140>
     78e:	0e 94 24 07 	call	0xe48	; 0xe48 <clock_time>
     792:	24 e9       	ldi	r18, 0x94	; 148
     794:	30 e0       	ldi	r19, 0x00	; 0
     796:	3f 93       	push	r19
     798:	2f 93       	push	r18
     79a:	9f 93       	push	r25
     79c:	8f 93       	push	r24
     79e:	7f 93       	push	r23
     7a0:	6f 93       	push	r22
     7a2:	ff 92       	push	r15
     7a4:	ef 92       	push	r14
     7a6:	88 e8       	ldi	r24, 0x88	; 136
     7a8:	90 e0       	ldi	r25, 0x00	; 0
     7aa:	9f 93       	push	r25
     7ac:	8f 93       	push	r24
     7ae:	80 91 93 05 	lds	r24, 0x0593
     7b2:	8f 93       	push	r24
     7b4:	80 91 92 05 	lds	r24, 0x0592
     7b8:	8f 93       	push	r24
     7ba:	0e 94 15 0f 	call	0x1e2a	; 0x1e2a <fprintf_P>
     7be:	20 c0       	rjmp	.+64     	; 0x800 <mqtt_exec_int+0x180>
     7c0:	0e 94 24 07 	call	0xe48	; 0xe48 <clock_time>
     7c4:	29 e7       	ldi	r18, 0x79	; 121
     7c6:	30 e0       	ldi	r19, 0x00	; 0
     7c8:	3f 93       	push	r19
     7ca:	2f 93       	push	r18
     7cc:	9f 93       	push	r25
     7ce:	8f 93       	push	r24
     7d0:	7f 93       	push	r23
     7d2:	6f 93       	push	r22
     7d4:	ff 92       	push	r15
     7d6:	ef 92       	push	r14
     7d8:	8d e6       	ldi	r24, 0x6D	; 109
     7da:	90 e0       	ldi	r25, 0x00	; 0
     7dc:	9f 93       	push	r25
     7de:	8f 93       	push	r24
     7e0:	80 91 93 05 	lds	r24, 0x0593
     7e4:	8f 93       	push	r24
     7e6:	80 91 92 05 	lds	r24, 0x0592
     7ea:	8f 93       	push	r24
     7ec:	0e 94 15 0f 	call	0x1e2a	; 0x1e2a <fprintf_P>
     7f0:	f8 01       	movw	r30, r16
     7f2:	80 85       	ldd	r24, Z+8	; 0x08
     7f4:	0e 94 9e 08 	call	0x113c	; 0x113c <DisconnectSocket>
     7f8:	f8 01       	movw	r30, r16
     7fa:	80 85       	ldd	r24, Z+8	; 0x08
     7fc:	0e 94 38 08 	call	0x1070	; 0x1070 <CloseSocket>
     800:	0f b6       	in	r0, 0x3f	; 63
     802:	f8 94       	cli
     804:	de bf       	out	0x3e, r29	; 62
     806:	0f be       	out	0x3f, r0	; 63
     808:	cd bf       	out	0x3d, r28	; 61
     80a:	0e c1       	rjmp	.+540    	; 0xa28 <__stack+0x129>
     80c:	f7 01       	movw	r30, r14
     80e:	83 a5       	ldd	r24, Z+43	; 0x2b
     810:	82 30       	cpi	r24, 0x02	; 2
     812:	59 f0       	breq	.+22     	; 0x82a <mqtt_exec_int+0x1aa>
     814:	83 30       	cpi	r24, 0x03	; 3
     816:	09 f0       	breq	.+2      	; 0x81a <mqtt_exec_int+0x19a>
     818:	aa c0       	rjmp	.+340    	; 0x96e <__stack+0x6f>
     81a:	c7 01       	movw	r24, r14
     81c:	0e 94 7d 0b 	call	0x16fa	; 0x16fa <umqtt_connect>
     820:	10 92 4d 02 	sts	0x024D, r1
     824:	10 92 4c 02 	sts	0x024C, r1
     828:	a2 c0       	rjmp	.+324    	; 0x96e <__stack+0x6f>
     82a:	0e 94 24 07 	call	0xe48	; 0xe48 <clock_time>
     82e:	f8 01       	movw	r30, r16
     830:	81 88       	ldd	r8, Z+17	; 0x11
     832:	92 88       	ldd	r9, Z+18	; 0x12
     834:	a3 88       	ldd	r10, Z+19	; 0x13
     836:	b4 88       	ldd	r11, Z+20	; 0x14
     838:	68 19       	sub	r22, r8
     83a:	79 09       	sbc	r23, r9
     83c:	8a 09       	sbc	r24, r10
     83e:	9b 09       	sbc	r25, r11
     840:	85 88       	ldd	r8, Z+21	; 0x15
     842:	96 88       	ldd	r9, Z+22	; 0x16
     844:	a7 88       	ldd	r10, Z+23	; 0x17
     846:	b0 8c       	ldd	r11, Z+24	; 0x18
     848:	68 15       	cp	r22, r8
     84a:	79 05       	cpc	r23, r9
     84c:	8a 05       	cpc	r24, r10
     84e:	9b 05       	cpc	r25, r11
     850:	08 f4       	brcc	.+2      	; 0x854 <mqtt_exec_int+0x1d4>
     852:	4f c0       	rjmp	.+158    	; 0x8f2 <mqtt_exec_int+0x272>
     854:	0e 94 24 07 	call	0xe48	; 0xe48 <clock_time>
     858:	f8 01       	movw	r30, r16
     85a:	61 8b       	std	Z+17, r22	; 0x11
     85c:	72 8b       	std	Z+18, r23	; 0x12
     85e:	83 8b       	std	Z+19, r24	; 0x13
     860:	94 8b       	std	Z+20, r25	; 0x14
     862:	80 91 4c 02 	lds	r24, 0x024C
     866:	90 91 4d 02 	lds	r25, 0x024D
     86a:	9c 01       	movw	r18, r24
     86c:	2f 5f       	subi	r18, 0xFF	; 255
     86e:	3f 4f       	sbci	r19, 0xFF	; 255
     870:	30 93 4d 02 	sts	0x024D, r19
     874:	20 93 4c 02 	sts	0x024C, r18
     878:	9f 93       	push	r25
     87a:	8f 93       	push	r24
     87c:	8a e8       	ldi	r24, 0x8A	; 138
     87e:	91 e0       	ldi	r25, 0x01	; 1
     880:	9f 93       	push	r25
     882:	8f 93       	push	r24
     884:	9e 01       	movw	r18, r28
     886:	2f 5f       	subi	r18, 0xFF	; 255
     888:	3f 4f       	sbci	r19, 0xFF	; 255
     88a:	59 01       	movw	r10, r18
     88c:	bf 92       	push	r11
     88e:	2f 93       	push	r18
     890:	0e 94 76 0f 	call	0x1eec	; 0x1eec <sprintf>
     894:	0e 94 24 07 	call	0xe48	; 0xe48 <clock_time>
     898:	bf 92       	push	r11
     89a:	af 92       	push	r10
     89c:	9f 93       	push	r25
     89e:	8f 93       	push	r24
     8a0:	7f 93       	push	r23
     8a2:	6f 93       	push	r22
     8a4:	8f e0       	ldi	r24, 0x0F	; 15
     8a6:	92 e0       	ldi	r25, 0x02	; 2
     8a8:	9f 93       	push	r25
     8aa:	8f 93       	push	r24
     8ac:	8f e8       	ldi	r24, 0x8F	; 143
     8ae:	91 e0       	ldi	r25, 0x01	; 1
     8b0:	9f 93       	push	r25
     8b2:	8f 93       	push	r24
     8b4:	80 91 93 05 	lds	r24, 0x0593
     8b8:	8f 93       	push	r24
     8ba:	80 91 92 05 	lds	r24, 0x0592
     8be:	8f 93       	push	r24
     8c0:	0e 94 03 0f 	call	0x1e06	; 0x1e06 <fprintf>
     8c4:	f5 01       	movw	r30, r10
     8c6:	01 90       	ld	r0, Z+
     8c8:	00 20       	and	r0, r0
     8ca:	e9 f7       	brne	.-6      	; 0x8c6 <mqtt_exec_int+0x246>
     8cc:	9f 01       	movw	r18, r30
     8ce:	21 50       	subi	r18, 0x01	; 1
     8d0:	31 09       	sbc	r19, r1
     8d2:	2a 19       	sub	r18, r10
     8d4:	3b 09       	sbc	r19, r11
     8d6:	88 e6       	ldi	r24, 0x68	; 104
     8d8:	90 e0       	ldi	r25, 0x00	; 0
     8da:	2b 87       	std	Y+11, r18	; 0x0b
     8dc:	3c 87       	std	Y+12, r19	; 0x0c
     8de:	0e 94 dd 02 	call	0x5ba	; 0x5ba <mqtt_full_topic_P>
     8e2:	2b 85       	ldd	r18, Y+11	; 0x0b
     8e4:	3c 85       	ldd	r19, Y+12	; 0x0c
     8e6:	a5 01       	movw	r20, r10
     8e8:	bc 01       	movw	r22, r24
     8ea:	c7 01       	movw	r24, r14
     8ec:	0e 94 a5 0c 	call	0x194a	; 0x194a <umqtt_publish>
     8f0:	39 c0       	rjmp	.+114    	; 0x964 <__stack+0x65>
     8f2:	0e 94 24 07 	call	0xe48	; 0xe48 <clock_time>
     8f6:	f8 01       	movw	r30, r16
     8f8:	81 84       	ldd	r8, Z+9	; 0x09
     8fa:	92 84       	ldd	r9, Z+10	; 0x0a
     8fc:	a3 84       	ldd	r10, Z+11	; 0x0b
     8fe:	b4 84       	ldd	r11, Z+12	; 0x0c
     900:	68 19       	sub	r22, r8
     902:	79 09       	sbc	r23, r9
     904:	8a 09       	sbc	r24, r10
     906:	9b 09       	sbc	r25, r11
     908:	85 84       	ldd	r8, Z+13	; 0x0d
     90a:	96 84       	ldd	r9, Z+14	; 0x0e
     90c:	a7 84       	ldd	r10, Z+15	; 0x0f
     90e:	b0 88       	ldd	r11, Z+16	; 0x10
     910:	68 15       	cp	r22, r8
     912:	79 05       	cpc	r23, r9
     914:	8a 05       	cpc	r24, r10
     916:	9b 05       	cpc	r25, r11
     918:	50 f1       	brcs	.+84     	; 0x96e <__stack+0x6f>
     91a:	0e 94 24 07 	call	0xe48	; 0xe48 <clock_time>
     91e:	f8 01       	movw	r30, r16
     920:	61 87       	std	Z+9, r22	; 0x09
     922:	72 87       	std	Z+10, r23	; 0x0a
     924:	83 87       	std	Z+11, r24	; 0x0b
     926:	94 87       	std	Z+12, r25	; 0x0c
     928:	f7 01       	movw	r30, r14
     92a:	b0 a0       	ldd	r11, Z+32	; 0x20
     92c:	a1 a0       	ldd	r10, Z+33	; 0x21
     92e:	0e 94 24 07 	call	0xe48	; 0xe48 <clock_time>
     932:	af 92       	push	r10
     934:	bf 92       	push	r11
     936:	9f 93       	push	r25
     938:	8f 93       	push	r24
     93a:	7f 93       	push	r23
     93c:	6f 93       	push	r22
     93e:	8f e0       	ldi	r24, 0x0F	; 15
     940:	92 e0       	ldi	r25, 0x02	; 2
     942:	9f 93       	push	r25
     944:	8f 93       	push	r24
     946:	80 ea       	ldi	r24, 0xA0	; 160
     948:	91 e0       	ldi	r25, 0x01	; 1
     94a:	9f 93       	push	r25
     94c:	8f 93       	push	r24
     94e:	80 91 93 05 	lds	r24, 0x0593
     952:	8f 93       	push	r24
     954:	80 91 92 05 	lds	r24, 0x0592
     958:	8f 93       	push	r24
     95a:	0e 94 03 0f 	call	0x1e06	; 0x1e06 <fprintf>
     95e:	c7 01       	movw	r24, r14
     960:	0e 94 10 0d 	call	0x1a20	; 0x1a20 <umqtt_ping>
     964:	0f b6       	in	r0, 0x3f	; 63
     966:	f8 94       	cli
     968:	de bf       	out	0x3e, r29	; 62
     96a:	0f be       	out	0x3f, r0	; 63
     96c:	cd bf       	out	0x3d, r28	; 61
     96e:	f7 01       	movw	r30, r14
     970:	86 81       	ldd	r24, Z+6	; 0x06
     972:	97 81       	ldd	r25, Z+7	; 0x07
     974:	89 2b       	or	r24, r25
     976:	19 f0       	breq	.+6      	; 0x97e <__stack+0x7f>
     978:	c7 01       	movw	r24, r14
     97a:	0e 94 5b 02 	call	0x4b6	; 0x4b6 <mqtt_new_packet>
     97e:	f8 01       	movw	r30, r16
     980:	80 85       	ldd	r24, Z+8	; 0x08
     982:	0e 94 73 0a 	call	0x14e6	; 0x14e6 <ReceivedSize>
     986:	5c 01       	movw	r10, r24
     988:	00 97       	sbiw	r24, 0x00	; 0
     98a:	09 f4       	brne	.+2      	; 0x98e <__stack+0x8f>
     98c:	4d c0       	rjmp	.+154    	; 0xa28 <__stack+0x129>
     98e:	0e 94 24 07 	call	0xe48	; 0xe48 <clock_time>
     992:	bf 92       	push	r11
     994:	af 92       	push	r10
     996:	9f 93       	push	r25
     998:	8f 93       	push	r24
     99a:	7f 93       	push	r23
     99c:	6f 93       	push	r22
     99e:	8f e0       	ldi	r24, 0x0F	; 15
     9a0:	92 e0       	ldi	r25, 0x02	; 2
     9a2:	9f 93       	push	r25
     9a4:	8f 93       	push	r24
     9a6:	82 eb       	ldi	r24, 0xB2	; 178
     9a8:	91 e0       	ldi	r25, 0x01	; 1
     9aa:	9f 93       	push	r25
     9ac:	8f 93       	push	r24
     9ae:	80 91 93 05 	lds	r24, 0x0593
     9b2:	8f 93       	push	r24
     9b4:	80 91 92 05 	lds	r24, 0x0592
     9b8:	8f 93       	push	r24
     9ba:	0e 94 03 0f 	call	0x1e06	; 0x1e06 <fprintf>
     9be:	a5 01       	movw	r20, r10
     9c0:	60 e9       	ldi	r22, 0x90	; 144
     9c2:	73 e0       	ldi	r23, 0x03	; 3
     9c4:	f8 01       	movw	r30, r16
     9c6:	80 85       	ldd	r24, Z+8	; 0x08
     9c8:	0e 94 f4 09 	call	0x13e8	; 0x13e8 <Receive>
     9cc:	0f b6       	in	r0, 0x3f	; 63
     9ce:	f8 94       	cli
     9d0:	de bf       	out	0x3e, r29	; 62
     9d2:	0f be       	out	0x3f, r0	; 63
     9d4:	cd bf       	out	0x3d, r28	; 61
     9d6:	89 2b       	or	r24, r25
     9d8:	61 f0       	breq	.+24     	; 0x9f2 <__stack+0xf3>
     9da:	83 e0       	ldi	r24, 0x03	; 3
     9dc:	f7 01       	movw	r30, r14
     9de:	83 a7       	std	Z+43, r24	; 0x2b
     9e0:	f8 01       	movw	r30, r16
     9e2:	80 85       	ldd	r24, Z+8	; 0x08
     9e4:	0e 94 9e 08 	call	0x113c	; 0x113c <DisconnectSocket>
     9e8:	f8 01       	movw	r30, r16
     9ea:	80 85       	ldd	r24, Z+8	; 0x08
     9ec:	0e 94 38 08 	call	0x1070	; 0x1070 <CloseSocket>
     9f0:	1b c0       	rjmp	.+54     	; 0xa28 <__stack+0x129>
     9f2:	b5 01       	movw	r22, r10
     9f4:	80 e9       	ldi	r24, 0x90	; 144
     9f6:	93 e0       	ldi	r25, 0x03	; 3
     9f8:	0e 94 28 02 	call	0x450	; 0x450 <buffer_print>
     9fc:	a5 01       	movw	r20, r10
     9fe:	60 e9       	ldi	r22, 0x90	; 144
     a00:	73 e0       	ldi	r23, 0x03	; 3
     a02:	c7 01       	movw	r24, r14
     a04:	08 96       	adiw	r24, 0x08	; 8
     a06:	0e 94 fc 0a 	call	0x15f8	; 0x15f8 <umqtt_circ_push>
     a0a:	c7 01       	movw	r24, r14
     a0c:	0e 94 3c 0d 	call	0x1a78	; 0x1a78 <umqtt_process>
     a10:	0b c0       	rjmp	.+22     	; 0xa28 <__stack+0x129>
     a12:	f8 01       	movw	r30, r16
     a14:	80 85       	ldd	r24, Z+8	; 0x08
     a16:	0e 94 9e 08 	call	0x113c	; 0x113c <DisconnectSocket>
     a1a:	f8 01       	movw	r30, r16
     a1c:	80 85       	ldd	r24, Z+8	; 0x08
     a1e:	0e 94 38 08 	call	0x1070	; 0x1070 <CloseSocket>
     a22:	83 e0       	ldi	r24, 0x03	; 3
     a24:	f7 01       	movw	r30, r14
     a26:	83 a7       	std	Z+43, r24	; 0x2b
     a28:	2c 96       	adiw	r28, 0x0c	; 12
     a2a:	0f b6       	in	r0, 0x3f	; 63
     a2c:	f8 94       	cli
     a2e:	de bf       	out	0x3e, r29	; 62
     a30:	0f be       	out	0x3f, r0	; 63
     a32:	cd bf       	out	0x3d, r28	; 61
     a34:	df 91       	pop	r29
     a36:	cf 91       	pop	r28
     a38:	1f 91       	pop	r17
     a3a:	0f 91       	pop	r16
     a3c:	ff 90       	pop	r15
     a3e:	ef 90       	pop	r14
     a40:	bf 90       	pop	r11
     a42:	af 90       	pop	r10
     a44:	9f 90       	pop	r9
     a46:	8f 90       	pop	r8
     a48:	08 95       	ret

00000a4a <mqtt_exec>:
     a4a:	e0 91 04 01 	lds	r30, 0x0104
     a4e:	f0 91 05 01 	lds	r31, 0x0105
     a52:	82 8d       	ldd	r24, Z+26	; 0x1a
     a54:	93 8d       	ldd	r25, Z+27	; 0x1b
     a56:	89 2b       	or	r24, r25
     a58:	21 f4       	brne	.+8      	; 0xa62 <mqtt_exec+0x18>
     a5a:	84 e0       	ldi	r24, 0x04	; 4
     a5c:	91 e0       	ldi	r25, 0x01	; 1
     a5e:	93 8f       	std	Z+27, r25	; 0x1b
     a60:	82 8f       	std	Z+26, r24	; 0x1a
     a62:	84 e0       	ldi	r24, 0x04	; 4
     a64:	91 e0       	ldi	r25, 0x01	; 1
     a66:	0c 94 40 03 	jmp	0x680	; 0x680 <mqtt_exec_int>

00000a6a <mqtt_publish>:
     a6a:	ef 92       	push	r14
     a6c:	ff 92       	push	r15
     a6e:	0f 93       	push	r16
     a70:	1f 93       	push	r17
     a72:	cf 93       	push	r28
     a74:	df 93       	push	r29
     a76:	18 2f       	mov	r17, r24
     a78:	09 2f       	mov	r16, r25
     a7a:	f6 2e       	mov	r15, r22
     a7c:	e7 2e       	mov	r14, r23
     a7e:	ea 01       	movw	r28, r20
     a80:	e0 91 04 01 	lds	r30, 0x0104
     a84:	f0 91 05 01 	lds	r31, 0x0105
     a88:	83 a5       	ldd	r24, Z+43	; 0x2b
     a8a:	82 30       	cpi	r24, 0x02	; 2
     a8c:	89 f5       	brne	.+98     	; 0xaf0 <mqtt_publish+0x86>
     a8e:	0e 94 24 07 	call	0xe48	; 0xe48 <clock_time>
     a92:	ef 92       	push	r14
     a94:	ff 92       	push	r15
     a96:	0f 93       	push	r16
     a98:	1f 93       	push	r17
     a9a:	9f 93       	push	r25
     a9c:	8f 93       	push	r24
     a9e:	7f 93       	push	r23
     aa0:	6f 93       	push	r22
     aa2:	e2 e0       	ldi	r30, 0x02	; 2
     aa4:	f2 e0       	ldi	r31, 0x02	; 2
     aa6:	ff 93       	push	r31
     aa8:	ef 93       	push	r30
     aaa:	e7 ec       	ldi	r30, 0xC7	; 199
     aac:	f1 e0       	ldi	r31, 0x01	; 1
     aae:	ff 93       	push	r31
     ab0:	ef 93       	push	r30
     ab2:	80 91 93 05 	lds	r24, 0x0593
     ab6:	8f 93       	push	r24
     ab8:	80 91 92 05 	lds	r24, 0x0592
     abc:	8f 93       	push	r24
     abe:	0e 94 03 0f 	call	0x1e06	; 0x1e06 <fprintf>
     ac2:	8d b7       	in	r24, 0x3d	; 61
     ac4:	9e b7       	in	r25, 0x3e	; 62
     ac6:	0e 96       	adiw	r24, 0x0e	; 14
     ac8:	0f b6       	in	r0, 0x3f	; 63
     aca:	f8 94       	cli
     acc:	9e bf       	out	0x3e, r25	; 62
     ace:	0f be       	out	0x3f, r0	; 63
     ad0:	8d bf       	out	0x3d, r24	; 61
     ad2:	9e 01       	movw	r18, r28
     ad4:	4f 2d       	mov	r20, r15
     ad6:	5e 2d       	mov	r21, r14
     ad8:	61 2f       	mov	r22, r17
     ada:	70 2f       	mov	r23, r16
     adc:	8d e1       	ldi	r24, 0x1D	; 29
     ade:	91 e0       	ldi	r25, 0x01	; 1
     ae0:	df 91       	pop	r29
     ae2:	cf 91       	pop	r28
     ae4:	1f 91       	pop	r17
     ae6:	0f 91       	pop	r16
     ae8:	ff 90       	pop	r15
     aea:	ef 90       	pop	r14
     aec:	0c 94 a5 0c 	jmp	0x194a	; 0x194a <umqtt_publish>
     af0:	0e 94 24 07 	call	0xe48	; 0xe48 <clock_time>
     af4:	ef 92       	push	r14
     af6:	ff 92       	push	r15
     af8:	0f 93       	push	r16
     afa:	1f 93       	push	r17
     afc:	9f 93       	push	r25
     afe:	8f 93       	push	r24
     b00:	7f 93       	push	r23
     b02:	6f 93       	push	r22
     b04:	82 e0       	ldi	r24, 0x02	; 2
     b06:	92 e0       	ldi	r25, 0x02	; 2
     b08:	9f 93       	push	r25
     b0a:	8f 93       	push	r24
     b0c:	80 ee       	ldi	r24, 0xE0	; 224
     b0e:	91 e0       	ldi	r25, 0x01	; 1
     b10:	9f 93       	push	r25
     b12:	8f 93       	push	r24
     b14:	80 91 93 05 	lds	r24, 0x0593
     b18:	8f 93       	push	r24
     b1a:	80 91 92 05 	lds	r24, 0x0592
     b1e:	8f 93       	push	r24
     b20:	0e 94 03 0f 	call	0x1e06	; 0x1e06 <fprintf>
     b24:	8d b7       	in	r24, 0x3d	; 61
     b26:	9e b7       	in	r25, 0x3e	; 62
     b28:	0e 96       	adiw	r24, 0x0e	; 14
     b2a:	0f b6       	in	r0, 0x3f	; 63
     b2c:	f8 94       	cli
     b2e:	9e bf       	out	0x3e, r25	; 62
     b30:	0f be       	out	0x3f, r0	; 63
     b32:	8d bf       	out	0x3d, r24	; 61
     b34:	df 91       	pop	r29
     b36:	cf 91       	pop	r28
     b38:	1f 91       	pop	r17
     b3a:	0f 91       	pop	r16
     b3c:	ff 90       	pop	r15
     b3e:	ef 90       	pop	r14
     b40:	08 95       	ret

00000b42 <main>:
     b42:	af 92       	push	r10
     b44:	bf 92       	push	r11
     b46:	cf 92       	push	r12
     b48:	df 92       	push	r13
     b4a:	ef 92       	push	r14
     b4c:	ff 92       	push	r15
     b4e:	0f 93       	push	r16
     b50:	1f 93       	push	r17
     b52:	cf 93       	push	r28
     b54:	df 93       	push	r29
     b56:	cd b7       	in	r28, 0x3d	; 61
     b58:	de b7       	in	r29, 0x3e	; 62
     b5a:	2c 97       	sbiw	r28, 0x0c	; 12
     b5c:	0f b6       	in	r0, 0x3f	; 63
     b5e:	f8 94       	cli
     b60:	de bf       	out	0x3e, r29	; 62
     b62:	0f be       	out	0x3f, r0	; 63
     b64:	cd bf       	out	0x3d, r28	; 61
     b66:	0e 94 ba 0a 	call	0x1574	; 0x1574 <uart_init>
     b6a:	0e 94 24 07 	call	0xe48	; 0xe48 <clock_time>
     b6e:	25 e7       	ldi	r18, 0x75	; 117
     b70:	31 e0       	ldi	r19, 0x01	; 1
     b72:	3f 93       	push	r19
     b74:	2f 93       	push	r18
     b76:	9f 93       	push	r25
     b78:	8f 93       	push	r24
     b7a:	7f 93       	push	r23
     b7c:	6f 93       	push	r22
     b7e:	00 e3       	ldi	r16, 0x30	; 48
     b80:	12 e0       	ldi	r17, 0x02	; 2
     b82:	1f 93       	push	r17
     b84:	0f 93       	push	r16
     b86:	89 e6       	ldi	r24, 0x69	; 105
     b88:	91 e0       	ldi	r25, 0x01	; 1
     b8a:	9f 93       	push	r25
     b8c:	8f 93       	push	r24
     b8e:	80 91 93 05 	lds	r24, 0x0593
     b92:	8f 93       	push	r24
     b94:	80 91 92 05 	lds	r24, 0x0592
     b98:	8f 93       	push	r24
     b9a:	0e 94 15 0f 	call	0x1e2a	; 0x1e2a <fprintf_P>
     b9e:	0e 94 0b 07 	call	0xe16	; 0xe16 <clock_init>
     ba2:	0e 94 24 07 	call	0xe48	; 0xe48 <clock_time>
     ba6:	2f e5       	ldi	r18, 0x5F	; 95
     ba8:	31 e0       	ldi	r19, 0x01	; 1
     baa:	3f 93       	push	r19
     bac:	2f 93       	push	r18
     bae:	9f 93       	push	r25
     bb0:	8f 93       	push	r24
     bb2:	7f 93       	push	r23
     bb4:	6f 93       	push	r22
     bb6:	1f 93       	push	r17
     bb8:	0f 93       	push	r16
     bba:	83 e5       	ldi	r24, 0x53	; 83
     bbc:	91 e0       	ldi	r25, 0x01	; 1
     bbe:	9f 93       	push	r25
     bc0:	8f 93       	push	r24
     bc2:	80 91 93 05 	lds	r24, 0x0593
     bc6:	8f 93       	push	r24
     bc8:	80 91 92 05 	lds	r24, 0x0592
     bcc:	8f 93       	push	r24
     bce:	0e 94 15 0f 	call	0x1e2a	; 0x1e2a <fprintf_P>
     bd2:	0e 94 02 02 	call	0x404	; 0x404 <spi_init>
     bd6:	0e 94 24 07 	call	0xe48	; 0xe48 <clock_time>
     bda:	2e e4       	ldi	r18, 0x4E	; 78
     bdc:	31 e0       	ldi	r19, 0x01	; 1
     bde:	3f 93       	push	r19
     be0:	2f 93       	push	r18
     be2:	9f 93       	push	r25
     be4:	8f 93       	push	r24
     be6:	7f 93       	push	r23
     be8:	6f 93       	push	r22
     bea:	1f 93       	push	r17
     bec:	0f 93       	push	r16
     bee:	82 e4       	ldi	r24, 0x42	; 66
     bf0:	91 e0       	ldi	r25, 0x01	; 1
     bf2:	9f 93       	push	r25
     bf4:	8f 93       	push	r24
     bf6:	80 91 93 05 	lds	r24, 0x0593
     bfa:	8f 93       	push	r24
     bfc:	80 91 92 05 	lds	r24, 0x0592
     c00:	8f 93       	push	r24
     c02:	0e 94 15 0f 	call	0x1e2a	; 0x1e2a <fprintf_P>
     c06:	0f b6       	in	r0, 0x3f	; 63
     c08:	f8 94       	cli
     c0a:	de bf       	out	0x3e, r29	; 62
     c0c:	0f be       	out	0x3f, r0	; 63
     c0e:	cd bf       	out	0x3d, r28	; 61
     c10:	0e 94 dd 00 	call	0x1ba	; 0x1ba <setup_ADC>
     c14:	0e 94 24 07 	call	0xe48	; 0xe48 <clock_time>
     c18:	6b 01       	movw	r12, r22
     c1a:	7c 01       	movw	r14, r24
     c1c:	0e 94 24 07 	call	0xe48	; 0xe48 <clock_time>
     c20:	2d e3       	ldi	r18, 0x3D	; 61
     c22:	31 e0       	ldi	r19, 0x01	; 1
     c24:	3f 93       	push	r19
     c26:	2f 93       	push	r18
     c28:	9f 93       	push	r25
     c2a:	8f 93       	push	r24
     c2c:	7f 93       	push	r23
     c2e:	6f 93       	push	r22
     c30:	1f 93       	push	r17
     c32:	0f 93       	push	r16
     c34:	81 e3       	ldi	r24, 0x31	; 49
     c36:	91 e0       	ldi	r25, 0x01	; 1
     c38:	9f 93       	push	r25
     c3a:	8f 93       	push	r24
     c3c:	80 91 93 05 	lds	r24, 0x0593
     c40:	8f 93       	push	r24
     c42:	80 91 92 05 	lds	r24, 0x0592
     c46:	8f 93       	push	r24
     c48:	0e 94 15 0f 	call	0x1e2a	; 0x1e2a <fprintf_P>
     c4c:	89 e4       	ldi	r24, 0x49	; 73
     c4e:	91 e0       	ldi	r25, 0x01	; 1
     c50:	0e 94 20 08 	call	0x1040	; 0x1040 <ifconfig>
     c54:	0e 94 24 07 	call	0xe48	; 0xe48 <clock_time>
     c58:	28 e2       	ldi	r18, 0x28	; 40
     c5a:	31 e0       	ldi	r19, 0x01	; 1
     c5c:	3f 93       	push	r19
     c5e:	2f 93       	push	r18
     c60:	9f 93       	push	r25
     c62:	8f 93       	push	r24
     c64:	7f 93       	push	r23
     c66:	6f 93       	push	r22
     c68:	1f 93       	push	r17
     c6a:	0f 93       	push	r16
     c6c:	8c e1       	ldi	r24, 0x1C	; 28
     c6e:	91 e0       	ldi	r25, 0x01	; 1
     c70:	9f 93       	push	r25
     c72:	8f 93       	push	r24
     c74:	80 91 93 05 	lds	r24, 0x0593
     c78:	8f 93       	push	r24
     c7a:	80 91 92 05 	lds	r24, 0x0592
     c7e:	8f 93       	push	r24
     c80:	0e 94 15 0f 	call	0x1e2a	; 0x1e2a <fprintf_P>
     c84:	78 94       	sei
     c86:	0e 94 24 07 	call	0xe48	; 0xe48 <clock_time>
     c8a:	27 e1       	ldi	r18, 0x17	; 23
     c8c:	31 e0       	ldi	r19, 0x01	; 1
     c8e:	3f 93       	push	r19
     c90:	2f 93       	push	r18
     c92:	9f 93       	push	r25
     c94:	8f 93       	push	r24
     c96:	7f 93       	push	r23
     c98:	6f 93       	push	r22
     c9a:	1f 93       	push	r17
     c9c:	0f 93       	push	r16
     c9e:	8b e0       	ldi	r24, 0x0B	; 11
     ca0:	91 e0       	ldi	r25, 0x01	; 1
     ca2:	9f 93       	push	r25
     ca4:	8f 93       	push	r24
     ca6:	80 91 93 05 	lds	r24, 0x0593
     caa:	8f 93       	push	r24
     cac:	80 91 92 05 	lds	r24, 0x0592
     cb0:	8f 93       	push	r24
     cb2:	0e 94 15 0f 	call	0x1e2a	; 0x1e2a <fprintf_P>
     cb6:	0f b6       	in	r0, 0x3f	; 63
     cb8:	f8 94       	cli
     cba:	de bf       	out	0x3e, r29	; 62
     cbc:	0f be       	out	0x3f, r0	; 63
     cbe:	cd bf       	out	0x3d, r28	; 61
     cc0:	0e 94 24 07 	call	0xe48	; 0xe48 <clock_time>
     cc4:	2f ef       	ldi	r18, 0xFF	; 255
     cc6:	30 e0       	ldi	r19, 0x00	; 0
     cc8:	3f 93       	push	r19
     cca:	2f 93       	push	r18
     ccc:	9f 93       	push	r25
     cce:	8f 93       	push	r24
     cd0:	7f 93       	push	r23
     cd2:	6f 93       	push	r22
     cd4:	1f 93       	push	r17
     cd6:	0f 93       	push	r16
     cd8:	83 ef       	ldi	r24, 0xF3	; 243
     cda:	90 e0       	ldi	r25, 0x00	; 0
     cdc:	9f 93       	push	r25
     cde:	8f 93       	push	r24
     ce0:	80 91 93 05 	lds	r24, 0x0593
     ce4:	8f 93       	push	r24
     ce6:	80 91 92 05 	lds	r24, 0x0592
     cea:	8f 93       	push	r24
     cec:	0e 94 15 0f 	call	0x1e2a	; 0x1e2a <fprintf_P>
     cf0:	0f b6       	in	r0, 0x3f	; 63
     cf2:	f8 94       	cli
     cf4:	de bf       	out	0x3e, r29	; 62
     cf6:	0f be       	out	0x3f, r0	; 63
     cf8:	cd bf       	out	0x3d, r28	; 61
     cfa:	8d e2       	ldi	r24, 0x2D	; 45
     cfc:	a8 2e       	mov	r10, r24
     cfe:	82 e0       	ldi	r24, 0x02	; 2
     d00:	b8 2e       	mov	r11, r24
     d02:	8e 01       	movw	r16, r28
     d04:	0f 5f       	subi	r16, 0xFF	; 255
     d06:	1f 4f       	sbci	r17, 0xFF	; 255
     d08:	9f ef       	ldi	r25, 0xFF	; 255
     d0a:	e1 ee       	ldi	r30, 0xE1	; 225
     d0c:	f4 e0       	ldi	r31, 0x04	; 4
     d0e:	91 50       	subi	r25, 0x01	; 1
     d10:	e0 40       	sbci	r30, 0x00	; 0
     d12:	f0 40       	sbci	r31, 0x00	; 0
     d14:	e1 f7       	brne	.-8      	; 0xd0e <main+0x1cc>
     d16:	00 c0       	rjmp	.+0      	; 0xd18 <main+0x1d6>
     d18:	00 00       	nop
     d1a:	0e 94 b5 0a 	call	0x156a	; 0x156a <uart_ready>
     d1e:	89 2b       	or	r24, r25
     d20:	41 f0       	breq	.+16     	; 0xd32 <main+0x1f0>
     d22:	80 91 90 05 	lds	r24, 0x0590
     d26:	90 91 91 05 	lds	r25, 0x0591
     d2a:	0e 94 c5 0e 	call	0x1d8a	; 0x1d8a <fgetc>
     d2e:	83 37       	cpi	r24, 0x73	; 115
     d30:	d1 f1       	breq	.+116    	; 0xda6 <main+0x264>
     d32:	0e 94 25 05 	call	0xa4a	; 0xa4a <mqtt_exec>
     d36:	0e 94 24 07 	call	0xe48	; 0xe48 <clock_time>
     d3a:	6c 19       	sub	r22, r12
     d3c:	7d 09       	sbc	r23, r13
     d3e:	8e 09       	sbc	r24, r14
     d40:	9f 09       	sbc	r25, r15
     d42:	64 3c       	cpi	r22, 0xC4	; 196
     d44:	79 40       	sbci	r23, 0x09	; 9
     d46:	81 05       	cpc	r24, r1
     d48:	91 05       	cpc	r25, r1
     d4a:	f0 f2       	brcs	.-68     	; 0xd08 <main+0x1c6>
     d4c:	24 ec       	ldi	r18, 0xC4	; 196
     d4e:	c2 0e       	add	r12, r18
     d50:	29 e0       	ldi	r18, 0x09	; 9
     d52:	d2 1e       	adc	r13, r18
     d54:	e1 1c       	adc	r14, r1
     d56:	f1 1c       	adc	r15, r1
     d58:	80 91 53 02 	lds	r24, 0x0253
     d5c:	8f 93       	push	r24
     d5e:	80 91 52 02 	lds	r24, 0x0252
     d62:	8f 93       	push	r24
     d64:	bf 92       	push	r11
     d66:	af 92       	push	r10
     d68:	1f 93       	push	r17
     d6a:	0f 93       	push	r16
     d6c:	0e 94 76 0f 	call	0x1eec	; 0x1eec <sprintf>
     d70:	f8 01       	movw	r30, r16
     d72:	01 90       	ld	r0, Z+
     d74:	00 20       	and	r0, r0
     d76:	e9 f7       	brne	.-6      	; 0xd72 <main+0x230>
     d78:	af 01       	movw	r20, r30
     d7a:	41 50       	subi	r20, 0x01	; 1
     d7c:	51 09       	sbc	r21, r1
     d7e:	40 1b       	sub	r20, r16
     d80:	51 0b       	sbc	r21, r17
     d82:	8e ee       	ldi	r24, 0xEE	; 238
     d84:	90 e0       	ldi	r25, 0x00	; 0
     d86:	4b 87       	std	Y+11, r20	; 0x0b
     d88:	5c 87       	std	Y+12, r21	; 0x0c
     d8a:	0e 94 dd 02 	call	0x5ba	; 0x5ba <mqtt_full_topic_P>
     d8e:	4b 85       	ldd	r20, Y+11	; 0x0b
     d90:	5c 85       	ldd	r21, Y+12	; 0x0c
     d92:	b8 01       	movw	r22, r16
     d94:	0e 94 35 05 	call	0xa6a	; 0xa6a <mqtt_publish>
     d98:	0f 90       	pop	r0
     d9a:	0f 90       	pop	r0
     d9c:	0f 90       	pop	r0
     d9e:	0f 90       	pop	r0
     da0:	0f 90       	pop	r0
     da2:	0f 90       	pop	r0
     da4:	b1 cf       	rjmp	.-158    	; 0xd08 <main+0x1c6>
     da6:	80 e0       	ldi	r24, 0x00	; 0
     da8:	90 e0       	ldi	r25, 0x00	; 0
     daa:	2c 96       	adiw	r28, 0x0c	; 12
     dac:	0f b6       	in	r0, 0x3f	; 63
     dae:	f8 94       	cli
     db0:	de bf       	out	0x3e, r29	; 62
     db2:	0f be       	out	0x3f, r0	; 63
     db4:	cd bf       	out	0x3d, r28	; 61
     db6:	df 91       	pop	r29
     db8:	cf 91       	pop	r28
     dba:	1f 91       	pop	r17
     dbc:	0f 91       	pop	r16
     dbe:	ff 90       	pop	r15
     dc0:	ef 90       	pop	r14
     dc2:	df 90       	pop	r13
     dc4:	cf 90       	pop	r12
     dc6:	bf 90       	pop	r11
     dc8:	af 90       	pop	r10
     dca:	08 95       	ret

00000dcc <__vector_11>:
     dcc:	1f 92       	push	r1
     dce:	0f 92       	push	r0
     dd0:	0f b6       	in	r0, 0x3f	; 63
     dd2:	0f 92       	push	r0
     dd4:	11 24       	eor	r1, r1
     dd6:	8f 93       	push	r24
     dd8:	9f 93       	push	r25
     dda:	af 93       	push	r26
     ddc:	bf 93       	push	r27
     dde:	80 91 4e 02 	lds	r24, 0x024E
     de2:	90 91 4f 02 	lds	r25, 0x024F
     de6:	a0 91 50 02 	lds	r26, 0x0250
     dea:	b0 91 51 02 	lds	r27, 0x0251
     dee:	01 96       	adiw	r24, 0x01	; 1
     df0:	a1 1d       	adc	r26, r1
     df2:	b1 1d       	adc	r27, r1
     df4:	80 93 4e 02 	sts	0x024E, r24
     df8:	90 93 4f 02 	sts	0x024F, r25
     dfc:	a0 93 50 02 	sts	0x0250, r26
     e00:	b0 93 51 02 	sts	0x0251, r27
     e04:	bf 91       	pop	r27
     e06:	af 91       	pop	r26
     e08:	9f 91       	pop	r25
     e0a:	8f 91       	pop	r24
     e0c:	0f 90       	pop	r0
     e0e:	0f be       	out	0x3f, r0	; 63
     e10:	0f 90       	pop	r0
     e12:	1f 90       	pop	r1
     e14:	18 95       	reti

00000e16 <clock_init>:
     e16:	10 92 4e 02 	sts	0x024E, r1
     e1a:	10 92 4f 02 	sts	0x024F, r1
     e1e:	10 92 50 02 	sts	0x0250, r1
     e22:	10 92 51 02 	sts	0x0251, r1
     e26:	ef e6       	ldi	r30, 0x6F	; 111
     e28:	f0 e0       	ldi	r31, 0x00	; 0
     e2a:	80 81       	ld	r24, Z
     e2c:	82 60       	ori	r24, 0x02	; 2
     e2e:	80 83       	st	Z, r24
     e30:	e1 e8       	ldi	r30, 0x81	; 129
     e32:	f0 e0       	ldi	r31, 0x00	; 0
     e34:	80 81       	ld	r24, Z
     e36:	8c 60       	ori	r24, 0x0C	; 12
     e38:	80 83       	st	Z, r24
     e3a:	8d e7       	ldi	r24, 0x7D	; 125
     e3c:	90 e0       	ldi	r25, 0x00	; 0
     e3e:	90 93 89 00 	sts	0x0089, r25
     e42:	80 93 88 00 	sts	0x0088, r24
     e46:	08 95       	ret

00000e48 <clock_time>:
     e48:	60 91 4e 02 	lds	r22, 0x024E
     e4c:	70 91 4f 02 	lds	r23, 0x024F
     e50:	80 91 50 02 	lds	r24, 0x0250
     e54:	90 91 51 02 	lds	r25, 0x0251
     e58:	08 95       	ret

00000e5a <select>:
     e5a:	2a 98       	cbi	0x05, 2	; 5
     e5c:	08 95       	ret

00000e5e <deselect>:
     e5e:	2a 9a       	sbi	0x05, 2	; 5
     e60:	08 95       	ret

00000e62 <xchg>:
     e62:	8e bd       	out	0x2e, r24	; 46
     e64:	0d b4       	in	r0, 0x2d	; 45
     e66:	07 fe       	sbrs	r0, 7
     e68:	fd cf       	rjmp	.-6      	; 0xe64 <xchg+0x2>
     e6a:	8f e9       	ldi	r24, 0x9F	; 159
     e6c:	9f e0       	ldi	r25, 0x0F	; 15
     e6e:	01 97       	sbiw	r24, 0x01	; 1
     e70:	f1 f7       	brne	.-4      	; 0xe6e <xchg+0xc>
     e72:	00 c0       	rjmp	.+0      	; 0xe74 <xchg+0x12>
     e74:	00 00       	nop
     e76:	8e b5       	in	r24, 0x2e	; 46
     e78:	08 95       	ret

00000e7a <W51_write>:
     e7a:	1f 93       	push	r17
     e7c:	cf 93       	push	r28
     e7e:	df 93       	push	r29
     e80:	00 d0       	rcall	.+0      	; 0xe82 <W51_write+0x8>
     e82:	cd b7       	in	r28, 0x3d	; 61
     e84:	de b7       	in	r29, 0x3e	; 62
     e86:	18 2f       	mov	r17, r24
     e88:	6a 83       	std	Y+2, r22	; 0x02
     e8a:	99 83       	std	Y+1, r25	; 0x01
     e8c:	0e 94 2d 07 	call	0xe5a	; 0xe5a <select>
     e90:	80 ef       	ldi	r24, 0xF0	; 240
     e92:	0e 94 31 07 	call	0xe62	; 0xe62 <xchg>
     e96:	99 81       	ldd	r25, Y+1	; 0x01
     e98:	89 2f       	mov	r24, r25
     e9a:	0e 94 31 07 	call	0xe62	; 0xe62 <xchg>
     e9e:	81 2f       	mov	r24, r17
     ea0:	0e 94 31 07 	call	0xe62	; 0xe62 <xchg>
     ea4:	6a 81       	ldd	r22, Y+2	; 0x02
     ea6:	86 2f       	mov	r24, r22
     ea8:	0e 94 31 07 	call	0xe62	; 0xe62 <xchg>
     eac:	0f 90       	pop	r0
     eae:	0f 90       	pop	r0
     eb0:	df 91       	pop	r29
     eb2:	cf 91       	pop	r28
     eb4:	1f 91       	pop	r17
     eb6:	0c 94 2f 07 	jmp	0xe5e	; 0xe5e <deselect>

00000eba <W51_read>:
     eba:	1f 93       	push	r17
     ebc:	cf 93       	push	r28
     ebe:	df 93       	push	r29
     ec0:	1f 92       	push	r1
     ec2:	cd b7       	in	r28, 0x3d	; 61
     ec4:	de b7       	in	r29, 0x3e	; 62
     ec6:	18 2f       	mov	r17, r24
     ec8:	99 83       	std	Y+1, r25	; 0x01
     eca:	0e 94 2d 07 	call	0xe5a	; 0xe5a <select>
     ece:	8f e0       	ldi	r24, 0x0F	; 15
     ed0:	0e 94 31 07 	call	0xe62	; 0xe62 <xchg>
     ed4:	99 81       	ldd	r25, Y+1	; 0x01
     ed6:	89 2f       	mov	r24, r25
     ed8:	0e 94 31 07 	call	0xe62	; 0xe62 <xchg>
     edc:	81 2f       	mov	r24, r17
     ede:	0e 94 31 07 	call	0xe62	; 0xe62 <xchg>
     ee2:	80 e0       	ldi	r24, 0x00	; 0
     ee4:	0e 94 31 07 	call	0xe62	; 0xe62 <xchg>
     ee8:	89 83       	std	Y+1, r24	; 0x01
     eea:	0e 94 2f 07 	call	0xe5e	; 0xe5e <deselect>
     eee:	89 81       	ldd	r24, Y+1	; 0x01
     ef0:	0f 90       	pop	r0
     ef2:	df 91       	pop	r29
     ef4:	cf 91       	pop	r28
     ef6:	1f 91       	pop	r17
     ef8:	08 95       	ret

00000efa <W51_init>:
     efa:	60 e8       	ldi	r22, 0x80	; 128
     efc:	80 e0       	ldi	r24, 0x00	; 0
     efe:	90 e0       	ldi	r25, 0x00	; 0
     f00:	0e 94 3d 07 	call	0xe7a	; 0xe7a <W51_write>
     f04:	8f e3       	ldi	r24, 0x3F	; 63
     f06:	9c e9       	ldi	r25, 0x9C	; 156
     f08:	01 97       	sbiw	r24, 0x01	; 1
     f0a:	f1 f7       	brne	.-4      	; 0xf08 <W51_init+0xe>
     f0c:	00 c0       	rjmp	.+0      	; 0xf0e <W51_init+0x14>
     f0e:	00 00       	nop
     f10:	08 95       	ret

00000f12 <W51_config>:
     f12:	cf 93       	push	r28
     f14:	df 93       	push	r29
     f16:	ec 01       	movw	r28, r24
     f18:	00 97       	sbiw	r24, 0x00	; 0
     f1a:	09 f4       	brne	.+2      	; 0xf1e <W51_config+0xc>
     f1c:	8d c0       	rjmp	.+282    	; 0x1038 <W51_config+0x126>
     f1e:	6e 85       	ldd	r22, Y+14	; 0x0e
     f20:	81 e0       	ldi	r24, 0x01	; 1
     f22:	90 e0       	ldi	r25, 0x00	; 0
     f24:	0e 94 3d 07 	call	0xe7a	; 0xe7a <W51_write>
     f28:	6f 85       	ldd	r22, Y+15	; 0x0f
     f2a:	82 e0       	ldi	r24, 0x02	; 2
     f2c:	90 e0       	ldi	r25, 0x00	; 0
     f2e:	0e 94 3d 07 	call	0xe7a	; 0xe7a <W51_write>
     f32:	68 89       	ldd	r22, Y+16	; 0x10
     f34:	83 e0       	ldi	r24, 0x03	; 3
     f36:	90 e0       	ldi	r25, 0x00	; 0
     f38:	0e 94 3d 07 	call	0xe7a	; 0xe7a <W51_write>
     f3c:	69 89       	ldd	r22, Y+17	; 0x11
     f3e:	84 e0       	ldi	r24, 0x04	; 4
     f40:	90 e0       	ldi	r25, 0x00	; 0
     f42:	0e 94 3d 07 	call	0xe7a	; 0xe7a <W51_write>
     f46:	8f e9       	ldi	r24, 0x9F	; 159
     f48:	9f e0       	ldi	r25, 0x0F	; 15
     f4a:	01 97       	sbiw	r24, 0x01	; 1
     f4c:	f1 f7       	brne	.-4      	; 0xf4a <W51_config+0x38>
     f4e:	00 c0       	rjmp	.+0      	; 0xf50 <W51_config+0x3e>
     f50:	00 00       	nop
     f52:	68 81       	ld	r22, Y
     f54:	89 e0       	ldi	r24, 0x09	; 9
     f56:	90 e0       	ldi	r25, 0x00	; 0
     f58:	0e 94 3d 07 	call	0xe7a	; 0xe7a <W51_write>
     f5c:	69 81       	ldd	r22, Y+1	; 0x01
     f5e:	8a e0       	ldi	r24, 0x0A	; 10
     f60:	90 e0       	ldi	r25, 0x00	; 0
     f62:	0e 94 3d 07 	call	0xe7a	; 0xe7a <W51_write>
     f66:	6a 81       	ldd	r22, Y+2	; 0x02
     f68:	8b e0       	ldi	r24, 0x0B	; 11
     f6a:	90 e0       	ldi	r25, 0x00	; 0
     f6c:	0e 94 3d 07 	call	0xe7a	; 0xe7a <W51_write>
     f70:	6b 81       	ldd	r22, Y+3	; 0x03
     f72:	8c e0       	ldi	r24, 0x0C	; 12
     f74:	90 e0       	ldi	r25, 0x00	; 0
     f76:	0e 94 3d 07 	call	0xe7a	; 0xe7a <W51_write>
     f7a:	6c 81       	ldd	r22, Y+4	; 0x04
     f7c:	8d e0       	ldi	r24, 0x0D	; 13
     f7e:	90 e0       	ldi	r25, 0x00	; 0
     f80:	0e 94 3d 07 	call	0xe7a	; 0xe7a <W51_write>
     f84:	6d 81       	ldd	r22, Y+5	; 0x05
     f86:	8e e0       	ldi	r24, 0x0E	; 14
     f88:	90 e0       	ldi	r25, 0x00	; 0
     f8a:	0e 94 3d 07 	call	0xe7a	; 0xe7a <W51_write>
     f8e:	8f e9       	ldi	r24, 0x9F	; 159
     f90:	9f e0       	ldi	r25, 0x0F	; 15
     f92:	01 97       	sbiw	r24, 0x01	; 1
     f94:	f1 f7       	brne	.-4      	; 0xf92 <W51_config+0x80>
     f96:	00 c0       	rjmp	.+0      	; 0xf98 <W51_config+0x86>
     f98:	00 00       	nop
     f9a:	6a 85       	ldd	r22, Y+10	; 0x0a
     f9c:	85 e0       	ldi	r24, 0x05	; 5
     f9e:	90 e0       	ldi	r25, 0x00	; 0
     fa0:	0e 94 3d 07 	call	0xe7a	; 0xe7a <W51_write>
     fa4:	6b 85       	ldd	r22, Y+11	; 0x0b
     fa6:	86 e0       	ldi	r24, 0x06	; 6
     fa8:	90 e0       	ldi	r25, 0x00	; 0
     faa:	0e 94 3d 07 	call	0xe7a	; 0xe7a <W51_write>
     fae:	6c 85       	ldd	r22, Y+12	; 0x0c
     fb0:	87 e0       	ldi	r24, 0x07	; 7
     fb2:	90 e0       	ldi	r25, 0x00	; 0
     fb4:	0e 94 3d 07 	call	0xe7a	; 0xe7a <W51_write>
     fb8:	6d 85       	ldd	r22, Y+13	; 0x0d
     fba:	88 e0       	ldi	r24, 0x08	; 8
     fbc:	90 e0       	ldi	r25, 0x00	; 0
     fbe:	0e 94 3d 07 	call	0xe7a	; 0xe7a <W51_write>
     fc2:	8f e9       	ldi	r24, 0x9F	; 159
     fc4:	9f e0       	ldi	r25, 0x0F	; 15
     fc6:	01 97       	sbiw	r24, 0x01	; 1
     fc8:	f1 f7       	brne	.-4      	; 0xfc6 <W51_config+0xb4>
     fca:	00 c0       	rjmp	.+0      	; 0xfcc <W51_config+0xba>
     fcc:	00 00       	nop
     fce:	6e 81       	ldd	r22, Y+6	; 0x06
     fd0:	8f e0       	ldi	r24, 0x0F	; 15
     fd2:	90 e0       	ldi	r25, 0x00	; 0
     fd4:	0e 94 3d 07 	call	0xe7a	; 0xe7a <W51_write>
     fd8:	6f 81       	ldd	r22, Y+7	; 0x07
     fda:	80 e1       	ldi	r24, 0x10	; 16
     fdc:	90 e0       	ldi	r25, 0x00	; 0
     fde:	0e 94 3d 07 	call	0xe7a	; 0xe7a <W51_write>
     fe2:	68 85       	ldd	r22, Y+8	; 0x08
     fe4:	81 e1       	ldi	r24, 0x11	; 17
     fe6:	90 e0       	ldi	r25, 0x00	; 0
     fe8:	0e 94 3d 07 	call	0xe7a	; 0xe7a <W51_write>
     fec:	69 85       	ldd	r22, Y+9	; 0x09
     fee:	82 e1       	ldi	r24, 0x12	; 18
     ff0:	90 e0       	ldi	r25, 0x00	; 0
     ff2:	0e 94 3d 07 	call	0xe7a	; 0xe7a <W51_write>
     ff6:	8f e9       	ldi	r24, 0x9F	; 159
     ff8:	9f e0       	ldi	r25, 0x0F	; 15
     ffa:	01 97       	sbiw	r24, 0x01	; 1
     ffc:	f1 f7       	brne	.-4      	; 0xffa <W51_config+0xe8>
     ffe:	00 c0       	rjmp	.+0      	; 0x1000 <W51_config+0xee>
    1000:	00 00       	nop
    1002:	60 e0       	ldi	r22, 0x00	; 0
    1004:	87 e1       	ldi	r24, 0x17	; 23
    1006:	90 e0       	ldi	r25, 0x00	; 0
    1008:	0e 94 3d 07 	call	0xe7a	; 0xe7a <W51_write>
    100c:	68 ec       	ldi	r22, 0xC8	; 200
    100e:	88 e1       	ldi	r24, 0x18	; 24
    1010:	90 e0       	ldi	r25, 0x00	; 0
    1012:	0e 94 3d 07 	call	0xe7a	; 0xe7a <W51_write>
    1016:	64 e0       	ldi	r22, 0x04	; 4
    1018:	89 e1       	ldi	r24, 0x19	; 25
    101a:	90 e0       	ldi	r25, 0x00	; 0
    101c:	0e 94 3d 07 	call	0xe7a	; 0xe7a <W51_write>
    1020:	65 e5       	ldi	r22, 0x55	; 85
    1022:	8a e1       	ldi	r24, 0x1A	; 26
    1024:	90 e0       	ldi	r25, 0x00	; 0
    1026:	0e 94 3d 07 	call	0xe7a	; 0xe7a <W51_write>
    102a:	65 e5       	ldi	r22, 0x55	; 85
    102c:	8b e1       	ldi	r24, 0x1B	; 27
    102e:	90 e0       	ldi	r25, 0x00	; 0
    1030:	0e 94 3d 07 	call	0xe7a	; 0xe7a <W51_write>
    1034:	80 e0       	ldi	r24, 0x00	; 0
    1036:	01 c0       	rjmp	.+2      	; 0x103a <W51_config+0x128>
    1038:	8f ef       	ldi	r24, 0xFF	; 255
    103a:	df 91       	pop	r29
    103c:	cf 91       	pop	r28
    103e:	08 95       	ret

00001040 <ifconfig>:
    1040:	cf 93       	push	r28
    1042:	df 93       	push	r29
    1044:	00 d0       	rcall	.+0      	; 0x1046 <ifconfig+0x6>
    1046:	cd b7       	in	r28, 0x3d	; 61
    1048:	de b7       	in	r29, 0x3e	; 62
    104a:	89 83       	std	Y+1, r24	; 0x01
    104c:	9a 83       	std	Y+2, r25	; 0x02
    104e:	0e 94 7d 07 	call	0xefa	; 0xefa <W51_init>
    1052:	89 81       	ldd	r24, Y+1	; 0x01
    1054:	9a 81       	ldd	r25, Y+2	; 0x02
    1056:	0f 90       	pop	r0
    1058:	0f 90       	pop	r0
    105a:	df 91       	pop	r29
    105c:	cf 91       	pop	r28
    105e:	0c 94 89 07 	jmp	0xf12	; 0xf12 <W51_config>

00001062 <SocketState>:
    1062:	90 e0       	ldi	r25, 0x00	; 0
    1064:	98 2f       	mov	r25, r24
    1066:	88 27       	eor	r24, r24
    1068:	8d 5f       	subi	r24, 0xFD	; 253
    106a:	9b 4f       	sbci	r25, 0xFB	; 251
    106c:	0c 94 5d 07 	jmp	0xeba	; 0xeba <W51_read>

00001070 <CloseSocket>:
    1070:	cf 93       	push	r28
    1072:	df 93       	push	r29
    1074:	85 30       	cpi	r24, 0x05	; 5
    1076:	78 f4       	brcc	.+30     	; 0x1096 <CloseSocket+0x26>
    1078:	c8 2f       	mov	r28, r24
    107a:	d0 e0       	ldi	r29, 0x00	; 0
    107c:	dc 2f       	mov	r29, r28
    107e:	cc 27       	eor	r28, r28
    1080:	cf 5f       	subi	r28, 0xFF	; 255
    1082:	db 4f       	sbci	r29, 0xFB	; 251
    1084:	60 e1       	ldi	r22, 0x10	; 16
    1086:	ce 01       	movw	r24, r28
    1088:	0e 94 3d 07 	call	0xe7a	; 0xe7a <W51_write>
    108c:	ce 01       	movw	r24, r28
    108e:	0e 94 5d 07 	call	0xeba	; 0xeba <W51_read>
    1092:	81 11       	cpse	r24, r1
    1094:	fb cf       	rjmp	.-10     	; 0x108c <CloseSocket+0x1c>
    1096:	df 91       	pop	r29
    1098:	cf 91       	pop	r28
    109a:	08 95       	ret

0000109c <OpenSocket>:
    109c:	cf 92       	push	r12
    109e:	df 92       	push	r13
    10a0:	ef 92       	push	r14
    10a2:	ff 92       	push	r15
    10a4:	0f 93       	push	r16
    10a6:	1f 93       	push	r17
    10a8:	cf 93       	push	r28
    10aa:	df 93       	push	r29
    10ac:	f8 2e       	mov	r15, r24
    10ae:	c6 2e       	mov	r12, r22
    10b0:	e4 2e       	mov	r14, r20
    10b2:	d5 2e       	mov	r13, r21
    10b4:	83 e0       	ldi	r24, 0x03	; 3
    10b6:	8f 15       	cp	r24, r15
    10b8:	a8 f1       	brcs	.+106    	; 0x1124 <OpenSocket+0x88>
    10ba:	cf 2d       	mov	r28, r15
    10bc:	d0 e0       	ldi	r29, 0x00	; 0
    10be:	24 96       	adiw	r28, 0x04	; 4
    10c0:	dc 2f       	mov	r29, r28
    10c2:	cc 27       	eor	r28, r28
    10c4:	8e 01       	movw	r16, r28
    10c6:	0d 5f       	subi	r16, 0xFD	; 253
    10c8:	1f 4f       	sbci	r17, 0xFF	; 255
    10ca:	c8 01       	movw	r24, r16
    10cc:	0e 94 5d 07 	call	0xeba	; 0xeba <W51_read>
    10d0:	88 23       	and	r24, r24
    10d2:	19 f0       	breq	.+6      	; 0x10da <OpenSocket+0x3e>
    10d4:	8f 2d       	mov	r24, r15
    10d6:	0e 94 38 08 	call	0x1070	; 0x1070 <CloseSocket>
    10da:	6f ef       	ldi	r22, 0xFF	; 255
    10dc:	ce 01       	movw	r24, r28
    10de:	02 96       	adiw	r24, 0x02	; 2
    10e0:	0e 94 3d 07 	call	0xe7a	; 0xe7a <W51_write>
    10e4:	6c 2d       	mov	r22, r12
    10e6:	ce 01       	movw	r24, r28
    10e8:	0e 94 3d 07 	call	0xe7a	; 0xe7a <W51_write>
    10ec:	6d 2d       	mov	r22, r13
    10ee:	ce 01       	movw	r24, r28
    10f0:	04 96       	adiw	r24, 0x04	; 4
    10f2:	0e 94 3d 07 	call	0xe7a	; 0xe7a <W51_write>
    10f6:	6e 2d       	mov	r22, r14
    10f8:	ce 01       	movw	r24, r28
    10fa:	05 96       	adiw	r24, 0x05	; 5
    10fc:	0e 94 3d 07 	call	0xe7a	; 0xe7a <W51_write>
    1100:	21 96       	adiw	r28, 0x01	; 1
    1102:	61 e0       	ldi	r22, 0x01	; 1
    1104:	ce 01       	movw	r24, r28
    1106:	0e 94 3d 07 	call	0xe7a	; 0xe7a <W51_write>
    110a:	ce 01       	movw	r24, r28
    110c:	0e 94 5d 07 	call	0xeba	; 0xeba <W51_read>
    1110:	81 11       	cpse	r24, r1
    1112:	fb cf       	rjmp	.-10     	; 0x110a <OpenSocket+0x6e>
    1114:	c8 01       	movw	r24, r16
    1116:	0e 94 5d 07 	call	0xeba	; 0xeba <W51_read>
    111a:	83 31       	cpi	r24, 0x13	; 19
    111c:	29 f0       	breq	.+10     	; 0x1128 <OpenSocket+0x8c>
    111e:	8f 2d       	mov	r24, r15
    1120:	0e 94 38 08 	call	0x1070	; 0x1070 <CloseSocket>
    1124:	ff 24       	eor	r15, r15
    1126:	fa 94       	dec	r15
    1128:	8f 2d       	mov	r24, r15
    112a:	df 91       	pop	r29
    112c:	cf 91       	pop	r28
    112e:	1f 91       	pop	r17
    1130:	0f 91       	pop	r16
    1132:	ff 90       	pop	r15
    1134:	ef 90       	pop	r14
    1136:	df 90       	pop	r13
    1138:	cf 90       	pop	r12
    113a:	08 95       	ret

0000113c <DisconnectSocket>:
    113c:	cf 93       	push	r28
    113e:	df 93       	push	r29
    1140:	85 30       	cpi	r24, 0x05	; 5
    1142:	78 f4       	brcc	.+30     	; 0x1162 <DisconnectSocket+0x26>
    1144:	c8 2f       	mov	r28, r24
    1146:	d0 e0       	ldi	r29, 0x00	; 0
    1148:	dc 2f       	mov	r29, r28
    114a:	cc 27       	eor	r28, r28
    114c:	cf 5f       	subi	r28, 0xFF	; 255
    114e:	db 4f       	sbci	r29, 0xFB	; 251
    1150:	68 e0       	ldi	r22, 0x08	; 8
    1152:	ce 01       	movw	r24, r28
    1154:	0e 94 3d 07 	call	0xe7a	; 0xe7a <W51_write>
    1158:	ce 01       	movw	r24, r28
    115a:	0e 94 5d 07 	call	0xeba	; 0xeba <W51_read>
    115e:	81 11       	cpse	r24, r1
    1160:	fb cf       	rjmp	.-10     	; 0x1158 <DisconnectSocket+0x1c>
    1162:	df 91       	pop	r29
    1164:	cf 91       	pop	r28
    1166:	08 95       	ret

00001168 <Connect>:
    1168:	8f 92       	push	r8
    116a:	9f 92       	push	r9
    116c:	af 92       	push	r10
    116e:	bf 92       	push	r11
    1170:	cf 92       	push	r12
    1172:	df 92       	push	r13
    1174:	ef 92       	push	r14
    1176:	ff 92       	push	r15
    1178:	0f 93       	push	r16
    117a:	1f 93       	push	r17
    117c:	cf 93       	push	r28
    117e:	df 93       	push	r29
    1180:	b8 2e       	mov	r11, r24
    1182:	8b 01       	movw	r16, r22
    1184:	d4 2e       	mov	r13, r20
    1186:	c5 2e       	mov	r12, r21
    1188:	84 e0       	ldi	r24, 0x04	; 4
    118a:	8b 15       	cp	r24, r11
    118c:	08 f4       	brcc	.+2      	; 0x1190 <Connect+0x28>
    118e:	78 c0       	rjmp	.+240    	; 0x1280 <Connect+0x118>
    1190:	cb 2d       	mov	r28, r11
    1192:	d0 e0       	ldi	r29, 0x00	; 0
    1194:	24 96       	adiw	r28, 0x04	; 4
    1196:	dc 2f       	mov	r29, r28
    1198:	cc 27       	eor	r28, r28
    119a:	7e 01       	movw	r14, r28
    119c:	93 e0       	ldi	r25, 0x03	; 3
    119e:	e9 0e       	add	r14, r25
    11a0:	f1 1c       	adc	r15, r1
    11a2:	c7 01       	movw	r24, r14
    11a4:	0e 94 5d 07 	call	0xeba	; 0xeba <W51_read>
    11a8:	83 31       	cpi	r24, 0x13	; 19
    11aa:	09 f0       	breq	.+2      	; 0x11ae <Connect+0x46>
    11ac:	69 c0       	rjmp	.+210    	; 0x1280 <Connect+0x118>
    11ae:	f8 01       	movw	r30, r16
    11b0:	60 81       	ld	r22, Z
    11b2:	ce 01       	movw	r24, r28
    11b4:	0c 96       	adiw	r24, 0x0c	; 12
    11b6:	0e 94 3d 07 	call	0xe7a	; 0xe7a <W51_write>
    11ba:	f8 01       	movw	r30, r16
    11bc:	61 81       	ldd	r22, Z+1	; 0x01
    11be:	ce 01       	movw	r24, r28
    11c0:	0d 96       	adiw	r24, 0x0d	; 13
    11c2:	0e 94 3d 07 	call	0xe7a	; 0xe7a <W51_write>
    11c6:	f8 01       	movw	r30, r16
    11c8:	62 81       	ldd	r22, Z+2	; 0x02
    11ca:	ce 01       	movw	r24, r28
    11cc:	0e 96       	adiw	r24, 0x0e	; 14
    11ce:	0e 94 3d 07 	call	0xe7a	; 0xe7a <W51_write>
    11d2:	f8 01       	movw	r30, r16
    11d4:	63 81       	ldd	r22, Z+3	; 0x03
    11d6:	ce 01       	movw	r24, r28
    11d8:	0f 96       	adiw	r24, 0x0f	; 15
    11da:	0e 94 3d 07 	call	0xe7a	; 0xe7a <W51_write>
    11de:	6c 2d       	mov	r22, r12
    11e0:	ce 01       	movw	r24, r28
    11e2:	40 96       	adiw	r24, 0x10	; 16
    11e4:	0e 94 3d 07 	call	0xe7a	; 0xe7a <W51_write>
    11e8:	6d 2d       	mov	r22, r13
    11ea:	ce 01       	movw	r24, r28
    11ec:	41 96       	adiw	r24, 0x11	; 17
    11ee:	0e 94 3d 07 	call	0xe7a	; 0xe7a <W51_write>
    11f2:	8e 01       	movw	r16, r28
    11f4:	0f 5f       	subi	r16, 0xFF	; 255
    11f6:	1f 4f       	sbci	r17, 0xFF	; 255
    11f8:	64 e0       	ldi	r22, 0x04	; 4
    11fa:	c8 01       	movw	r24, r16
    11fc:	0e 94 3d 07 	call	0xe7a	; 0xe7a <W51_write>
    1200:	c8 01       	movw	r24, r16
    1202:	0e 94 5d 07 	call	0xeba	; 0xeba <W51_read>
    1206:	81 11       	cpse	r24, r1
    1208:	fb cf       	rjmp	.-10     	; 0x1200 <Connect+0x98>
    120a:	00 e0       	ldi	r16, 0x00	; 0
    120c:	10 e0       	ldi	r17, 0x00	; 0
    120e:	88 24       	eor	r8, r8
    1210:	8a 94       	dec	r8
    1212:	6e 01       	movw	r12, r28
    1214:	f2 e0       	ldi	r31, 0x02	; 2
    1216:	cf 0e       	add	r12, r31
    1218:	d1 1c       	adc	r13, r1
    121a:	c5 e3       	ldi	r28, 0x35	; 53
    121c:	d2 e0       	ldi	r29, 0x02	; 2
    121e:	c7 01       	movw	r24, r14
    1220:	0e 94 5d 07 	call	0xeba	; 0xeba <W51_read>
    1224:	98 2e       	mov	r9, r24
    1226:	c6 01       	movw	r24, r12
    1228:	0e 94 5d 07 	call	0xeba	; 0xeba <W51_read>
    122c:	a8 2e       	mov	r10, r24
    122e:	88 16       	cp	r8, r24
    1230:	91 f0       	breq	.+36     	; 0x1256 <Connect+0xee>
    1232:	1f 92       	push	r1
    1234:	8f 93       	push	r24
    1236:	1f 92       	push	r1
    1238:	9f 92       	push	r9
    123a:	1f 93       	push	r17
    123c:	0f 93       	push	r16
    123e:	df 93       	push	r29
    1240:	cf 93       	push	r28
    1242:	0e 94 62 0f 	call	0x1ec4	; 0x1ec4 <printf>
    1246:	ed b7       	in	r30, 0x3d	; 61
    1248:	fe b7       	in	r31, 0x3e	; 62
    124a:	38 96       	adiw	r30, 0x08	; 8
    124c:	0f b6       	in	r0, 0x3f	; 63
    124e:	f8 94       	cli
    1250:	fe bf       	out	0x3e, r31	; 62
    1252:	0f be       	out	0x3f, r0	; 63
    1254:	ed bf       	out	0x3d, r30	; 61
    1256:	0f 5f       	subi	r16, 0xFF	; 255
    1258:	1f 4f       	sbci	r17, 0xFF	; 255
    125a:	f7 e1       	ldi	r31, 0x17	; 23
    125c:	9f 16       	cp	r9, r31
    125e:	41 f0       	breq	.+16     	; 0x1270 <Connect+0x108>
    1260:	99 20       	and	r9, r9
    1262:	31 f0       	breq	.+12     	; 0x1270 <Connect+0x108>
    1264:	00 37       	cpi	r16, 0x70	; 112
    1266:	87 e1       	ldi	r24, 0x17	; 23
    1268:	18 07       	cpc	r17, r24
    126a:	11 f0       	breq	.+4      	; 0x1270 <Connect+0x108>
    126c:	8a 2c       	mov	r8, r10
    126e:	d7 cf       	rjmp	.-82     	; 0x121e <Connect+0xb6>
    1270:	c7 01       	movw	r24, r14
    1272:	0e 94 5d 07 	call	0xeba	; 0xeba <W51_read>
    1276:	87 31       	cpi	r24, 0x17	; 23
    1278:	29 f0       	breq	.+10     	; 0x1284 <Connect+0x11c>
    127a:	8b 2d       	mov	r24, r11
    127c:	0e 94 38 08 	call	0x1070	; 0x1070 <CloseSocket>
    1280:	8f ef       	ldi	r24, 0xFF	; 255
    1282:	01 c0       	rjmp	.+2      	; 0x1286 <Connect+0x11e>
    1284:	80 e0       	ldi	r24, 0x00	; 0
    1286:	df 91       	pop	r29
    1288:	cf 91       	pop	r28
    128a:	1f 91       	pop	r17
    128c:	0f 91       	pop	r16
    128e:	ff 90       	pop	r15
    1290:	ef 90       	pop	r14
    1292:	df 90       	pop	r13
    1294:	cf 90       	pop	r12
    1296:	bf 90       	pop	r11
    1298:	af 90       	pop	r10
    129a:	9f 90       	pop	r9
    129c:	8f 90       	pop	r8
    129e:	08 95       	ret

000012a0 <free_buff_size>:
    12a0:	0f 93       	push	r16
    12a2:	1f 93       	push	r17
    12a4:	cf 93       	push	r28
    12a6:	df 93       	push	r29
    12a8:	90 e0       	ldi	r25, 0x00	; 0
    12aa:	04 96       	adiw	r24, 0x04	; 4
    12ac:	d8 2f       	mov	r29, r24
    12ae:	cc 27       	eor	r28, r28
    12b0:	ce 01       	movw	r24, r28
    12b2:	80 96       	adiw	r24, 0x20	; 32
    12b4:	0e 94 5d 07 	call	0xeba	; 0xeba <W51_read>
    12b8:	08 2f       	mov	r16, r24
    12ba:	10 e0       	ldi	r17, 0x00	; 0
    12bc:	10 2f       	mov	r17, r16
    12be:	00 27       	eor	r16, r16
    12c0:	ce 01       	movw	r24, r28
    12c2:	81 96       	adiw	r24, 0x21	; 33
    12c4:	0e 94 5d 07 	call	0xeba	; 0xeba <W51_read>
    12c8:	98 01       	movw	r18, r16
    12ca:	28 0f       	add	r18, r24
    12cc:	31 1d       	adc	r19, r1
    12ce:	c9 01       	movw	r24, r18
    12d0:	df 91       	pop	r29
    12d2:	cf 91       	pop	r28
    12d4:	1f 91       	pop	r17
    12d6:	0f 91       	pop	r16
    12d8:	08 95       	ret

000012da <Send>:
    12da:	4f 92       	push	r4
    12dc:	5f 92       	push	r5
    12de:	6f 92       	push	r6
    12e0:	7f 92       	push	r7
    12e2:	8f 92       	push	r8
    12e4:	9f 92       	push	r9
    12e6:	af 92       	push	r10
    12e8:	bf 92       	push	r11
    12ea:	cf 92       	push	r12
    12ec:	df 92       	push	r13
    12ee:	ef 92       	push	r14
    12f0:	ff 92       	push	r15
    12f2:	0f 93       	push	r16
    12f4:	1f 93       	push	r17
    12f6:	cf 93       	push	r28
    12f8:	df 93       	push	r29
    12fa:	f8 2e       	mov	r15, r24
    12fc:	3b 01       	movw	r6, r22
    12fe:	8a 01       	movw	r16, r20
    1300:	41 15       	cp	r20, r1
    1302:	51 05       	cpc	r21, r1
    1304:	09 f4       	brne	.+2      	; 0x1308 <Send+0x2e>
    1306:	5e c0       	rjmp	.+188    	; 0x13c4 <Send+0xea>
    1308:	83 e0       	ldi	r24, 0x03	; 3
    130a:	8f 15       	cp	r24, r15
    130c:	08 f4       	brcc	.+2      	; 0x1310 <Send+0x36>
    130e:	5a c0       	rjmp	.+180    	; 0x13c4 <Send+0xea>
    1310:	cf 2c       	mov	r12, r15
    1312:	d1 2c       	mov	r13, r1
    1314:	94 e0       	ldi	r25, 0x04	; 4
    1316:	c9 0e       	add	r12, r25
    1318:	d1 1c       	adc	r13, r1
    131a:	dc 2c       	mov	r13, r12
    131c:	cc 24       	eor	r12, r12
    131e:	ca ee       	ldi	r28, 0xEA	; 234
    1320:	d3 e0       	ldi	r29, 0x03	; 3
    1322:	8f 2d       	mov	r24, r15
    1324:	0e 94 50 09 	call	0x12a0	; 0x12a0 <free_buff_size>
    1328:	80 17       	cp	r24, r16
    132a:	91 07       	cpc	r25, r17
    132c:	68 f4       	brcc	.+26     	; 0x1348 <Send+0x6e>
    132e:	8f e9       	ldi	r24, 0x9F	; 159
    1330:	9f e0       	ldi	r25, 0x0F	; 15
    1332:	01 97       	sbiw	r24, 0x01	; 1
    1334:	f1 f7       	brne	.-4      	; 0x1332 <Send+0x58>
    1336:	00 c0       	rjmp	.+0      	; 0x1338 <Send+0x5e>
    1338:	00 00       	nop
    133a:	21 97       	sbiw	r28, 0x01	; 1
    133c:	20 97       	sbiw	r28, 0x00	; 0
    133e:	89 f7       	brne	.-30     	; 0x1322 <Send+0x48>
    1340:	8f 2d       	mov	r24, r15
    1342:	0e 94 9e 08 	call	0x113c	; 0x113c <DisconnectSocket>
    1346:	3e c0       	rjmp	.+124    	; 0x13c4 <Send+0xea>
    1348:	46 01       	movw	r8, r12
    134a:	94 e2       	ldi	r25, 0x24	; 36
    134c:	89 0e       	add	r8, r25
    134e:	91 1c       	adc	r9, r1
    1350:	c4 01       	movw	r24, r8
    1352:	0e 94 5d 07 	call	0xeba	; 0xeba <W51_read>
    1356:	e8 2e       	mov	r14, r24
    1358:	56 01       	movw	r10, r12
    135a:	85 e2       	ldi	r24, 0x25	; 37
    135c:	a8 0e       	add	r10, r24
    135e:	b1 1c       	adc	r11, r1
    1360:	c5 01       	movw	r24, r10
    1362:	0e 94 5d 07 	call	0xeba	; 0xeba <W51_read>
    1366:	f1 2c       	mov	r15, r1
    1368:	fe 2c       	mov	r15, r14
    136a:	ee 24       	eor	r14, r14
    136c:	e8 0e       	add	r14, r24
    136e:	f1 1c       	adc	r15, r1
    1370:	28 01       	movw	r4, r16
    1372:	e3 01       	movw	r28, r6
    1374:	37 01       	movw	r6, r14
    1376:	6c 1a       	sub	r6, r28
    1378:	7d 0a       	sbc	r7, r29
    137a:	91 e0       	ldi	r25, 0x01	; 1
    137c:	49 1a       	sub	r4, r25
    137e:	51 08       	sbc	r5, r1
    1380:	ce 01       	movw	r24, r28
    1382:	86 0d       	add	r24, r6
    1384:	97 1d       	adc	r25, r7
    1386:	97 70       	andi	r25, 0x07	; 7
    1388:	69 91       	ld	r22, Y+
    138a:	90 5c       	subi	r25, 0xC0	; 192
    138c:	0e 94 3d 07 	call	0xe7a	; 0xe7a <W51_write>
    1390:	41 14       	cp	r4, r1
    1392:	51 04       	cpc	r5, r1
    1394:	91 f7       	brne	.-28     	; 0x137a <Send+0xa0>
    1396:	0e 0d       	add	r16, r14
    1398:	1f 1d       	adc	r17, r15
    139a:	61 2f       	mov	r22, r17
    139c:	c4 01       	movw	r24, r8
    139e:	0e 94 3d 07 	call	0xe7a	; 0xe7a <W51_write>
    13a2:	60 2f       	mov	r22, r16
    13a4:	c5 01       	movw	r24, r10
    13a6:	0e 94 3d 07 	call	0xe7a	; 0xe7a <W51_write>
    13aa:	8f ef       	ldi	r24, 0xFF	; 255
    13ac:	c8 1a       	sub	r12, r24
    13ae:	d8 0a       	sbc	r13, r24
    13b0:	60 e2       	ldi	r22, 0x20	; 32
    13b2:	c6 01       	movw	r24, r12
    13b4:	0e 94 3d 07 	call	0xe7a	; 0xe7a <W51_write>
    13b8:	c6 01       	movw	r24, r12
    13ba:	0e 94 5d 07 	call	0xeba	; 0xeba <W51_read>
    13be:	81 11       	cpse	r24, r1
    13c0:	fb cf       	rjmp	.-10     	; 0x13b8 <Send+0xde>
    13c2:	01 c0       	rjmp	.+2      	; 0x13c6 <Send+0xec>
    13c4:	8f ef       	ldi	r24, 0xFF	; 255
    13c6:	df 91       	pop	r29
    13c8:	cf 91       	pop	r28
    13ca:	1f 91       	pop	r17
    13cc:	0f 91       	pop	r16
    13ce:	ff 90       	pop	r15
    13d0:	ef 90       	pop	r14
    13d2:	df 90       	pop	r13
    13d4:	cf 90       	pop	r12
    13d6:	bf 90       	pop	r11
    13d8:	af 90       	pop	r10
    13da:	9f 90       	pop	r9
    13dc:	8f 90       	pop	r8
    13de:	7f 90       	pop	r7
    13e0:	6f 90       	pop	r6
    13e2:	5f 90       	pop	r5
    13e4:	4f 90       	pop	r4
    13e6:	08 95       	ret

000013e8 <Receive>:
    13e8:	2f 92       	push	r2
    13ea:	3f 92       	push	r3
    13ec:	4f 92       	push	r4
    13ee:	5f 92       	push	r5
    13f0:	6f 92       	push	r6
    13f2:	7f 92       	push	r7
    13f4:	8f 92       	push	r8
    13f6:	9f 92       	push	r9
    13f8:	af 92       	push	r10
    13fa:	bf 92       	push	r11
    13fc:	cf 92       	push	r12
    13fe:	df 92       	push	r13
    1400:	ef 92       	push	r14
    1402:	ff 92       	push	r15
    1404:	0f 93       	push	r16
    1406:	1f 93       	push	r17
    1408:	cf 93       	push	r28
    140a:	df 93       	push	r29
    140c:	1b 01       	movw	r2, r22
    140e:	41 15       	cp	r20, r1
    1410:	51 05       	cpc	r21, r1
    1412:	09 f4       	brne	.+2      	; 0x1416 <Receive+0x2e>
    1414:	53 c0       	rjmp	.+166    	; 0x14bc <Receive+0xd4>
    1416:	84 30       	cpi	r24, 0x04	; 4
    1418:	08 f0       	brcs	.+2      	; 0x141c <Receive+0x34>
    141a:	50 c0       	rjmp	.+160    	; 0x14bc <Receive+0xd4>
    141c:	ea 01       	movw	r28, r20
    141e:	4f 3f       	cpi	r20, 0xFF	; 255
    1420:	91 e0       	ldi	r25, 0x01	; 1
    1422:	59 07       	cpc	r21, r25
    1424:	10 f0       	brcs	.+4      	; 0x142a <Receive+0x42>
    1426:	ce ef       	ldi	r28, 0xFE	; 254
    1428:	d1 e0       	ldi	r29, 0x01	; 1
    142a:	e8 2e       	mov	r14, r24
    142c:	f1 2c       	mov	r15, r1
    142e:	e4 e0       	ldi	r30, 0x04	; 4
    1430:	ee 0e       	add	r14, r30
    1432:	f1 1c       	adc	r15, r1
    1434:	fe 2c       	mov	r15, r14
    1436:	ee 24       	eor	r14, r14
    1438:	47 01       	movw	r8, r14
    143a:	f8 e2       	ldi	r31, 0x28	; 40
    143c:	8f 0e       	add	r8, r31
    143e:	91 1c       	adc	r9, r1
    1440:	c4 01       	movw	r24, r8
    1442:	0e 94 5d 07 	call	0xeba	; 0xeba <W51_read>
    1446:	08 2f       	mov	r16, r24
    1448:	57 01       	movw	r10, r14
    144a:	89 e2       	ldi	r24, 0x29	; 41
    144c:	a8 0e       	add	r10, r24
    144e:	b1 1c       	adc	r11, r1
    1450:	c5 01       	movw	r24, r10
    1452:	0e 94 5d 07 	call	0xeba	; 0xeba <W51_read>
    1456:	10 e0       	ldi	r17, 0x00	; 0
    1458:	10 2f       	mov	r17, r16
    145a:	00 27       	eor	r16, r16
    145c:	08 0f       	add	r16, r24
    145e:	11 1d       	adc	r17, r1
    1460:	6e 01       	movw	r12, r28
    1462:	21 01       	movw	r4, r2
    1464:	38 01       	movw	r6, r16
    1466:	62 18       	sub	r6, r2
    1468:	73 08       	sbc	r7, r3
    146a:	91 e0       	ldi	r25, 0x01	; 1
    146c:	c9 1a       	sub	r12, r25
    146e:	d1 08       	sbc	r13, r1
    1470:	c2 01       	movw	r24, r4
    1472:	86 0d       	add	r24, r6
    1474:	97 1d       	adc	r25, r7
    1476:	97 70       	andi	r25, 0x07	; 7
    1478:	90 5a       	subi	r25, 0xA0	; 160
    147a:	0e 94 5d 07 	call	0xeba	; 0xeba <W51_read>
    147e:	f2 01       	movw	r30, r4
    1480:	81 93       	st	Z+, r24
    1482:	2f 01       	movw	r4, r30
    1484:	c1 14       	cp	r12, r1
    1486:	d1 04       	cpc	r13, r1
    1488:	81 f7       	brne	.-32     	; 0x146a <Receive+0x82>
    148a:	0c 0f       	add	r16, r28
    148c:	1d 1f       	adc	r17, r29
    148e:	c2 0d       	add	r28, r2
    1490:	d3 1d       	adc	r29, r3
    1492:	18 82       	st	Y, r1
    1494:	61 2f       	mov	r22, r17
    1496:	c4 01       	movw	r24, r8
    1498:	0e 94 3d 07 	call	0xe7a	; 0xe7a <W51_write>
    149c:	60 2f       	mov	r22, r16
    149e:	c5 01       	movw	r24, r10
    14a0:	0e 94 3d 07 	call	0xe7a	; 0xe7a <W51_write>
    14a4:	60 e4       	ldi	r22, 0x40	; 64
    14a6:	c7 01       	movw	r24, r14
    14a8:	01 96       	adiw	r24, 0x01	; 1
    14aa:	0e 94 3d 07 	call	0xe7a	; 0xe7a <W51_write>
    14ae:	fa e1       	ldi	r31, 0x1A	; 26
    14b0:	fa 95       	dec	r31
    14b2:	f1 f7       	brne	.-4      	; 0x14b0 <Receive+0xc8>
    14b4:	00 c0       	rjmp	.+0      	; 0x14b6 <Receive+0xce>
    14b6:	80 e0       	ldi	r24, 0x00	; 0
    14b8:	90 e0       	ldi	r25, 0x00	; 0
    14ba:	02 c0       	rjmp	.+4      	; 0x14c0 <Receive+0xd8>
    14bc:	8f ef       	ldi	r24, 0xFF	; 255
    14be:	90 e0       	ldi	r25, 0x00	; 0
    14c0:	df 91       	pop	r29
    14c2:	cf 91       	pop	r28
    14c4:	1f 91       	pop	r17
    14c6:	0f 91       	pop	r16
    14c8:	ff 90       	pop	r15
    14ca:	ef 90       	pop	r14
    14cc:	df 90       	pop	r13
    14ce:	cf 90       	pop	r12
    14d0:	bf 90       	pop	r11
    14d2:	af 90       	pop	r10
    14d4:	9f 90       	pop	r9
    14d6:	8f 90       	pop	r8
    14d8:	7f 90       	pop	r7
    14da:	6f 90       	pop	r6
    14dc:	5f 90       	pop	r5
    14de:	4f 90       	pop	r4
    14e0:	3f 90       	pop	r3
    14e2:	2f 90       	pop	r2
    14e4:	08 95       	ret

000014e6 <ReceivedSize>:
    14e6:	0f 93       	push	r16
    14e8:	1f 93       	push	r17
    14ea:	cf 93       	push	r28
    14ec:	df 93       	push	r29
    14ee:	84 30       	cpi	r24, 0x04	; 4
    14f0:	a8 f4       	brcc	.+42     	; 0x151c <ReceivedSize+0x36>
    14f2:	90 e0       	ldi	r25, 0x00	; 0
    14f4:	04 96       	adiw	r24, 0x04	; 4
    14f6:	d8 2f       	mov	r29, r24
    14f8:	cc 27       	eor	r28, r28
    14fa:	ce 01       	movw	r24, r28
    14fc:	86 96       	adiw	r24, 0x26	; 38
    14fe:	0e 94 5d 07 	call	0xeba	; 0xeba <W51_read>
    1502:	08 2f       	mov	r16, r24
    1504:	10 e0       	ldi	r17, 0x00	; 0
    1506:	10 2f       	mov	r17, r16
    1508:	00 27       	eor	r16, r16
    150a:	ce 01       	movw	r24, r28
    150c:	87 96       	adiw	r24, 0x27	; 39
    150e:	0e 94 5d 07 	call	0xeba	; 0xeba <W51_read>
    1512:	98 01       	movw	r18, r16
    1514:	28 0f       	add	r18, r24
    1516:	31 1d       	adc	r19, r1
    1518:	c9 01       	movw	r24, r18
    151a:	02 c0       	rjmp	.+4      	; 0x1520 <ReceivedSize+0x3a>
    151c:	80 e0       	ldi	r24, 0x00	; 0
    151e:	90 e0       	ldi	r25, 0x00	; 0
    1520:	df 91       	pop	r29
    1522:	cf 91       	pop	r28
    1524:	1f 91       	pop	r17
    1526:	0f 91       	pop	r16
    1528:	08 95       	ret

0000152a <uart_putchar>:
    152a:	cf 93       	push	r28
    152c:	c8 2f       	mov	r28, r24
    152e:	8a 30       	cpi	r24, 0x0A	; 10
    1530:	19 f4       	brne	.+6      	; 0x1538 <uart_putchar+0xe>
    1532:	8d e0       	ldi	r24, 0x0D	; 13
    1534:	0e 94 95 0a 	call	0x152a	; 0x152a <uart_putchar>
    1538:	80 91 c0 00 	lds	r24, 0x00C0
    153c:	85 ff       	sbrs	r24, 5
    153e:	fc cf       	rjmp	.-8      	; 0x1538 <uart_putchar+0xe>
    1540:	c0 93 c6 00 	sts	0x00C6, r28
    1544:	80 e0       	ldi	r24, 0x00	; 0
    1546:	90 e0       	ldi	r25, 0x00	; 0
    1548:	cf 91       	pop	r28
    154a:	08 95       	ret

0000154c <uart_getchar>:
    154c:	cf 93       	push	r28
    154e:	bc 01       	movw	r22, r24
    1550:	80 91 c0 00 	lds	r24, 0x00C0
    1554:	87 ff       	sbrs	r24, 7
    1556:	fc cf       	rjmp	.-8      	; 0x1550 <uart_getchar+0x4>
    1558:	c0 91 c6 00 	lds	r28, 0x00C6
    155c:	8c 2f       	mov	r24, r28
    155e:	0e 94 95 0a 	call	0x152a	; 0x152a <uart_putchar>
    1562:	8c 2f       	mov	r24, r28
    1564:	90 e0       	ldi	r25, 0x00	; 0
    1566:	cf 91       	pop	r28
    1568:	08 95       	ret

0000156a <uart_ready>:
    156a:	80 91 c0 00 	lds	r24, 0x00C0
    156e:	80 78       	andi	r24, 0x80	; 128
    1570:	90 e0       	ldi	r25, 0x00	; 0
    1572:	08 95       	ret

00001574 <uart_init>:
    1574:	10 92 c5 00 	sts	0x00C5, r1
    1578:	82 e2       	ldi	r24, 0x22	; 34
    157a:	80 93 c4 00 	sts	0x00C4, r24
    157e:	e0 ec       	ldi	r30, 0xC0	; 192
    1580:	f0 e0       	ldi	r31, 0x00	; 0
    1582:	80 81       	ld	r24, Z
    1584:	82 60       	ori	r24, 0x02	; 2
    1586:	80 83       	st	Z, r24
    1588:	86 e0       	ldi	r24, 0x06	; 6
    158a:	80 93 c2 00 	sts	0x00C2, r24
    158e:	88 e1       	ldi	r24, 0x18	; 24
    1590:	80 93 c1 00 	sts	0x00C1, r24
    1594:	8b e5       	ldi	r24, 0x5B	; 91
    1596:	91 e0       	ldi	r25, 0x01	; 1
    1598:	90 93 93 05 	sts	0x0593, r25
    159c:	80 93 92 05 	sts	0x0592, r24
    15a0:	90 93 91 05 	sts	0x0591, r25
    15a4:	80 93 90 05 	sts	0x0590, r24
    15a8:	08 95       	ret

000015aa <umqtt_encode_length>:
    15aa:	0f 93       	push	r16
    15ac:	1f 93       	push	r17
    15ae:	cf 93       	push	r28
    15b0:	df 93       	push	r29
    15b2:	9c 01       	movw	r18, r24
    15b4:	eb 01       	movw	r28, r22
    15b6:	fb 01       	movw	r30, r22
    15b8:	00 e8       	ldi	r16, 0x80	; 128
    15ba:	10 e0       	ldi	r17, 0x00	; 0
    15bc:	c9 01       	movw	r24, r18
    15be:	b8 01       	movw	r22, r16
    15c0:	0e 94 8b 0e 	call	0x1d16	; 0x1d16 <__divmodhi4>
    15c4:	ac 01       	movw	r20, r24
    15c6:	37 ff       	sbrs	r19, 7
    15c8:	02 c0       	rjmp	.+4      	; 0x15ce <umqtt_encode_length+0x24>
    15ca:	21 58       	subi	r18, 0x81	; 129
    15cc:	3f 4f       	sbci	r19, 0xFF	; 255
    15ce:	22 0f       	add	r18, r18
    15d0:	23 2f       	mov	r18, r19
    15d2:	22 1f       	adc	r18, r18
    15d4:	33 0b       	sbc	r19, r19
    15d6:	12 16       	cp	r1, r18
    15d8:	13 06       	cpc	r1, r19
    15da:	14 f4       	brge	.+4      	; 0x15e0 <umqtt_encode_length+0x36>
    15dc:	ac 01       	movw	r20, r24
    15de:	40 68       	ori	r20, 0x80	; 128
    15e0:	41 93       	st	Z+, r20
    15e2:	cf 01       	movw	r24, r30
    15e4:	8c 1b       	sub	r24, r28
    15e6:	9d 0b       	sbc	r25, r29
    15e8:	21 15       	cp	r18, r1
    15ea:	31 05       	cpc	r19, r1
    15ec:	39 f7       	brne	.-50     	; 0x15bc <umqtt_encode_length+0x12>
    15ee:	df 91       	pop	r29
    15f0:	cf 91       	pop	r28
    15f2:	1f 91       	pop	r17
    15f4:	0f 91       	pop	r16
    15f6:	08 95       	ret

000015f8 <umqtt_circ_push>:
    15f8:	cf 92       	push	r12
    15fa:	df 92       	push	r13
    15fc:	ef 92       	push	r14
    15fe:	ff 92       	push	r15
    1600:	0f 93       	push	r16
    1602:	1f 93       	push	r17
    1604:	cf 93       	push	r28
    1606:	df 93       	push	r29
    1608:	fc 01       	movw	r30, r24
    160a:	7b 01       	movw	r14, r22
    160c:	9a 01       	movw	r18, r20
    160e:	00 81       	ld	r16, Z
    1610:	11 81       	ldd	r17, Z+1	; 0x01
    1612:	62 81       	ldd	r22, Z+2	; 0x02
    1614:	73 81       	ldd	r23, Z+3	; 0x03
    1616:	6b 01       	movw	r12, r22
    1618:	81 e0       	ldi	r24, 0x01	; 1
    161a:	c8 1a       	sub	r12, r24
    161c:	d1 08       	sbc	r13, r1
    161e:	c0 0e       	add	r12, r16
    1620:	d1 1e       	adc	r13, r17
    1622:	84 81       	ldd	r24, Z+4	; 0x04
    1624:	95 81       	ldd	r25, Z+5	; 0x05
    1626:	80 1b       	sub	r24, r16
    1628:	91 0b       	sbc	r25, r17
    162a:	46 81       	ldd	r20, Z+6	; 0x06
    162c:	57 81       	ldd	r21, Z+7	; 0x07
    162e:	84 0f       	add	r24, r20
    1630:	95 1f       	adc	r25, r21
    1632:	0e 94 8b 0e 	call	0x1d16	; 0x1d16 <__divmodhi4>
    1636:	dc 01       	movw	r26, r24
    1638:	a0 0f       	add	r26, r16
    163a:	b1 1f       	adc	r27, r17
    163c:	12 16       	cp	r1, r18
    163e:	13 06       	cpc	r1, r19
    1640:	d4 f4       	brge	.+52     	; 0x1676 <umqtt_circ_push+0x7e>
    1642:	ca 16       	cp	r12, r26
    1644:	db 06       	cpc	r13, r27
    1646:	10 f4       	brcc	.+4      	; 0x164c <umqtt_circ_push+0x54>
    1648:	a0 81       	ld	r26, Z
    164a:	b1 81       	ldd	r27, Z+1	; 0x01
    164c:	86 81       	ldd	r24, Z+6	; 0x06
    164e:	97 81       	ldd	r25, Z+7	; 0x07
    1650:	89 2b       	or	r24, r25
    1652:	29 f0       	breq	.+10     	; 0x165e <umqtt_circ_push+0x66>
    1654:	84 81       	ldd	r24, Z+4	; 0x04
    1656:	95 81       	ldd	r25, Z+5	; 0x05
    1658:	a8 17       	cp	r26, r24
    165a:	b9 07       	cpc	r27, r25
    165c:	61 f0       	breq	.+24     	; 0x1676 <umqtt_circ_push+0x7e>
    165e:	e7 01       	movw	r28, r14
    1660:	89 91       	ld	r24, Y+
    1662:	7e 01       	movw	r14, r28
    1664:	8d 93       	st	X+, r24
    1666:	86 81       	ldd	r24, Z+6	; 0x06
    1668:	97 81       	ldd	r25, Z+7	; 0x07
    166a:	01 96       	adiw	r24, 0x01	; 1
    166c:	97 83       	std	Z+7, r25	; 0x07
    166e:	86 83       	std	Z+6, r24	; 0x06
    1670:	21 50       	subi	r18, 0x01	; 1
    1672:	31 09       	sbc	r19, r1
    1674:	e3 cf       	rjmp	.-58     	; 0x163c <umqtt_circ_push+0x44>
    1676:	c9 01       	movw	r24, r18
    1678:	df 91       	pop	r29
    167a:	cf 91       	pop	r28
    167c:	1f 91       	pop	r17
    167e:	0f 91       	pop	r16
    1680:	ff 90       	pop	r15
    1682:	ef 90       	pop	r14
    1684:	df 90       	pop	r13
    1686:	cf 90       	pop	r12
    1688:	08 95       	ret

0000168a <umqtt_circ_pop>:
    168a:	0f 93       	push	r16
    168c:	1f 93       	push	r17
    168e:	cf 93       	push	r28
    1690:	df 93       	push	r29
    1692:	fc 01       	movw	r30, r24
    1694:	82 81       	ldd	r24, Z+2	; 0x02
    1696:	93 81       	ldd	r25, Z+3	; 0x03
    1698:	01 97       	sbiw	r24, 0x01	; 1
    169a:	c0 81       	ld	r28, Z
    169c:	d1 81       	ldd	r29, Z+1	; 0x01
    169e:	c8 0f       	add	r28, r24
    16a0:	d9 1f       	adc	r29, r25
    16a2:	8b 01       	movw	r16, r22
    16a4:	80 e0       	ldi	r24, 0x00	; 0
    16a6:	90 e0       	ldi	r25, 0x00	; 0
    16a8:	84 17       	cp	r24, r20
    16aa:	95 07       	cpc	r25, r21
    16ac:	0c f5       	brge	.+66     	; 0x16f0 <umqtt_circ_pop+0x66>
    16ae:	26 81       	ldd	r18, Z+6	; 0x06
    16b0:	37 81       	ldd	r19, Z+7	; 0x07
    16b2:	12 16       	cp	r1, r18
    16b4:	13 06       	cpc	r1, r19
    16b6:	e4 f4       	brge	.+56     	; 0x16f0 <umqtt_circ_pop+0x66>
    16b8:	24 81       	ldd	r18, Z+4	; 0x04
    16ba:	35 81       	ldd	r19, Z+5	; 0x05
    16bc:	d9 01       	movw	r26, r18
    16be:	2c 91       	ld	r18, X
    16c0:	d8 01       	movw	r26, r16
    16c2:	2d 93       	st	X+, r18
    16c4:	8d 01       	movw	r16, r26
    16c6:	24 81       	ldd	r18, Z+4	; 0x04
    16c8:	35 81       	ldd	r19, Z+5	; 0x05
    16ca:	2f 5f       	subi	r18, 0xFF	; 255
    16cc:	3f 4f       	sbci	r19, 0xFF	; 255
    16ce:	35 83       	std	Z+5, r19	; 0x05
    16d0:	24 83       	std	Z+4, r18	; 0x04
    16d2:	66 81       	ldd	r22, Z+6	; 0x06
    16d4:	77 81       	ldd	r23, Z+7	; 0x07
    16d6:	61 50       	subi	r22, 0x01	; 1
    16d8:	71 09       	sbc	r23, r1
    16da:	77 83       	std	Z+7, r23	; 0x07
    16dc:	66 83       	std	Z+6, r22	; 0x06
    16de:	c2 17       	cp	r28, r18
    16e0:	d3 07       	cpc	r29, r19
    16e2:	20 f4       	brcc	.+8      	; 0x16ec <umqtt_circ_pop+0x62>
    16e4:	20 81       	ld	r18, Z
    16e6:	31 81       	ldd	r19, Z+1	; 0x01
    16e8:	35 83       	std	Z+5, r19	; 0x05
    16ea:	24 83       	std	Z+4, r18	; 0x04
    16ec:	01 96       	adiw	r24, 0x01	; 1
    16ee:	dc cf       	rjmp	.-72     	; 0x16a8 <umqtt_circ_pop+0x1e>
    16f0:	df 91       	pop	r29
    16f2:	cf 91       	pop	r28
    16f4:	1f 91       	pop	r17
    16f6:	0f 91       	pop	r16
    16f8:	08 95       	ret

000016fa <umqtt_connect>:
    16fa:	ef 92       	push	r14
    16fc:	ff 92       	push	r15
    16fe:	0f 93       	push	r16
    1700:	1f 93       	push	r17
    1702:	cf 93       	push	r28
    1704:	df 93       	push	r29
    1706:	cd b7       	in	r28, 0x3d	; 61
    1708:	de b7       	in	r29, 0x3e	; 62
    170a:	61 97       	sbiw	r28, 0x11	; 17
    170c:	0f b6       	in	r0, 0x3f	; 63
    170e:	f8 94       	cli
    1710:	de bf       	out	0x3e, r29	; 62
    1712:	0f be       	out	0x3f, r0	; 63
    1714:	cd bf       	out	0x3d, r28	; 61
    1716:	8c 01       	movw	r16, r24
    1718:	dc 01       	movw	r26, r24
    171a:	52 96       	adiw	r26, 0x12	; 18
    171c:	ed 91       	ld	r30, X+
    171e:	fc 91       	ld	r31, X
    1720:	53 97       	sbiw	r26, 0x13	; 19
    1722:	df 01       	movw	r26, r30
    1724:	0d 90       	ld	r0, X+
    1726:	00 20       	and	r0, r0
    1728:	e9 f7       	brne	.-6      	; 0x1724 <umqtt_connect+0x2a>
    172a:	cd 01       	movw	r24, r26
    172c:	01 97       	sbiw	r24, 0x01	; 1
    172e:	7c 01       	movw	r14, r24
    1730:	ee 1a       	sub	r14, r30
    1732:	ff 0a       	sbc	r15, r31
    1734:	d8 01       	movw	r26, r16
    1736:	18 96       	adiw	r26, 0x08	; 8
    1738:	8d 91       	ld	r24, X+
    173a:	9c 91       	ld	r25, X
    173c:	19 97       	sbiw	r26, 0x09	; 9
    173e:	1d 96       	adiw	r26, 0x0d	; 13
    1740:	9c 93       	st	X, r25
    1742:	8e 93       	st	-X, r24
    1744:	1c 97       	sbiw	r26, 0x0c	; 12
    1746:	1f 96       	adiw	r26, 0x0f	; 15
    1748:	1c 92       	st	X, r1
    174a:	1e 92       	st	-X, r1
    174c:	1e 97       	sbiw	r26, 0x0e	; 14
    174e:	8d 91       	ld	r24, X+
    1750:	9c 91       	ld	r25, X
    1752:	11 97       	sbiw	r26, 0x01	; 1
    1754:	15 96       	adiw	r26, 0x05	; 5
    1756:	9c 93       	st	X, r25
    1758:	8e 93       	st	-X, r24
    175a:	14 97       	sbiw	r26, 0x04	; 4
    175c:	17 96       	adiw	r26, 0x07	; 7
    175e:	1c 92       	st	X, r1
    1760:	1e 92       	st	-X, r1
    1762:	16 97       	sbiw	r26, 0x06	; 6
    1764:	9b 96       	adiw	r26, 0x2b	; 43
    1766:	1c 92       	st	X, r1
    1768:	9b 97       	sbiw	r26, 0x2b	; 43
    176a:	91 96       	adiw	r26, 0x21	; 33
    176c:	1c 92       	st	X, r1
    176e:	1e 92       	st	-X, r1
    1770:	90 97       	sbiw	r26, 0x20	; 32
    1772:	5d 96       	adiw	r26, 0x1d	; 29
    1774:	1c 92       	st	X, r1
    1776:	1e 92       	st	-X, r1
    1778:	5c 97       	sbiw	r26, 0x1c	; 28
    177a:	5f 96       	adiw	r26, 0x1f	; 31
    177c:	1c 92       	st	X, r1
    177e:	1e 92       	st	-X, r1
    1780:	5e 97       	sbiw	r26, 0x1e	; 30
    1782:	81 e0       	ldi	r24, 0x01	; 1
    1784:	90 e0       	ldi	r25, 0x00	; 0
    1786:	93 96       	adiw	r26, 0x23	; 35
    1788:	9c 93       	st	X, r25
    178a:	8e 93       	st	-X, r24
    178c:	92 97       	sbiw	r26, 0x22	; 34
    178e:	80 e1       	ldi	r24, 0x10	; 16
    1790:	89 8b       	std	Y+17, r24	; 0x11
    1792:	19 82       	std	Y+1, r1	; 0x01
    1794:	84 e0       	ldi	r24, 0x04	; 4
    1796:	8a 83       	std	Y+2, r24	; 0x02
    1798:	9d e4       	ldi	r25, 0x4D	; 77
    179a:	9b 83       	std	Y+3, r25	; 0x03
    179c:	91 e5       	ldi	r25, 0x51	; 81
    179e:	9c 83       	std	Y+4, r25	; 0x04
    17a0:	94 e5       	ldi	r25, 0x54	; 84
    17a2:	9d 83       	std	Y+5, r25	; 0x05
    17a4:	9e 83       	std	Y+6, r25	; 0x06
    17a6:	8f 83       	std	Y+7, r24	; 0x07
    17a8:	82 e0       	ldi	r24, 0x02	; 2
    17aa:	88 87       	std	Y+8, r24	; 0x08
    17ac:	50 96       	adiw	r26, 0x10	; 16
    17ae:	8c 91       	ld	r24, X
    17b0:	50 97       	sbiw	r26, 0x10	; 16
    17b2:	51 96       	adiw	r26, 0x11	; 17
    17b4:	9c 91       	ld	r25, X
    17b6:	99 87       	std	Y+9, r25	; 0x09
    17b8:	8a 87       	std	Y+10, r24	; 0x0a
    17ba:	9e 2d       	mov	r25, r14
    17bc:	8f 2d       	mov	r24, r15
    17be:	98 8b       	std	Y+16, r25	; 0x10
    17c0:	8f 87       	std	Y+15, r24	; 0x0f
    17c2:	41 e0       	ldi	r20, 0x01	; 1
    17c4:	50 e0       	ldi	r21, 0x00	; 0
    17c6:	be 01       	movw	r22, r28
    17c8:	6f 5e       	subi	r22, 0xEF	; 239
    17ca:	7f 4f       	sbci	r23, 0xFF	; 255
    17cc:	c8 01       	movw	r24, r16
    17ce:	0e 94 fc 0a 	call	0x15f8	; 0x15f8 <umqtt_circ_push>
    17d2:	be 01       	movw	r22, r28
    17d4:	65 5f       	subi	r22, 0xF5	; 245
    17d6:	7f 4f       	sbci	r23, 0xFF	; 255
    17d8:	c7 01       	movw	r24, r14
    17da:	0c 96       	adiw	r24, 0x0c	; 12
    17dc:	0e 94 d5 0a 	call	0x15aa	; 0x15aa <umqtt_encode_length>
    17e0:	ac 01       	movw	r20, r24
    17e2:	be 01       	movw	r22, r28
    17e4:	65 5f       	subi	r22, 0xF5	; 245
    17e6:	7f 4f       	sbci	r23, 0xFF	; 255
    17e8:	c8 01       	movw	r24, r16
    17ea:	0e 94 fc 0a 	call	0x15f8	; 0x15f8 <umqtt_circ_push>
    17ee:	4a e0       	ldi	r20, 0x0A	; 10
    17f0:	50 e0       	ldi	r21, 0x00	; 0
    17f2:	be 01       	movw	r22, r28
    17f4:	6f 5f       	subi	r22, 0xFF	; 255
    17f6:	7f 4f       	sbci	r23, 0xFF	; 255
    17f8:	c8 01       	movw	r24, r16
    17fa:	0e 94 fc 0a 	call	0x15f8	; 0x15f8 <umqtt_circ_push>
    17fe:	42 e0       	ldi	r20, 0x02	; 2
    1800:	50 e0       	ldi	r21, 0x00	; 0
    1802:	be 01       	movw	r22, r28
    1804:	61 5f       	subi	r22, 0xF1	; 241
    1806:	7f 4f       	sbci	r23, 0xFF	; 255
    1808:	c8 01       	movw	r24, r16
    180a:	0e 94 fc 0a 	call	0x15f8	; 0x15f8 <umqtt_circ_push>
    180e:	f8 01       	movw	r30, r16
    1810:	62 89       	ldd	r22, Z+18	; 0x12
    1812:	73 89       	ldd	r23, Z+19	; 0x13
    1814:	a7 01       	movw	r20, r14
    1816:	c8 01       	movw	r24, r16
    1818:	0e 94 fc 0a 	call	0x15f8	; 0x15f8 <umqtt_circ_push>
    181c:	81 e0       	ldi	r24, 0x01	; 1
    181e:	d8 01       	movw	r26, r16
    1820:	9b 96       	adiw	r26, 0x2b	; 43
    1822:	8c 93       	st	X, r24
    1824:	9b 97       	sbiw	r26, 0x2b	; 43
    1826:	58 96       	adiw	r26, 0x18	; 24
    1828:	ed 91       	ld	r30, X+
    182a:	fc 91       	ld	r31, X
    182c:	59 97       	sbiw	r26, 0x19	; 25
    182e:	30 97       	sbiw	r30, 0x00	; 0
    1830:	11 f0       	breq	.+4      	; 0x1836 <umqtt_connect+0x13c>
    1832:	c8 01       	movw	r24, r16
    1834:	09 95       	icall
    1836:	61 96       	adiw	r28, 0x11	; 17
    1838:	0f b6       	in	r0, 0x3f	; 63
    183a:	f8 94       	cli
    183c:	de bf       	out	0x3e, r29	; 62
    183e:	0f be       	out	0x3f, r0	; 63
    1840:	cd bf       	out	0x3d, r28	; 61
    1842:	df 91       	pop	r29
    1844:	cf 91       	pop	r28
    1846:	1f 91       	pop	r17
    1848:	0f 91       	pop	r16
    184a:	ff 90       	pop	r15
    184c:	ef 90       	pop	r14
    184e:	08 95       	ret

00001850 <umqtt_subscribe>:
    1850:	cf 92       	push	r12
    1852:	df 92       	push	r13
    1854:	ef 92       	push	r14
    1856:	ff 92       	push	r15
    1858:	0f 93       	push	r16
    185a:	1f 93       	push	r17
    185c:	cf 93       	push	r28
    185e:	df 93       	push	r29
    1860:	cd b7       	in	r28, 0x3d	; 61
    1862:	de b7       	in	r29, 0x3e	; 62
    1864:	2a 97       	sbiw	r28, 0x0a	; 10
    1866:	0f b6       	in	r0, 0x3f	; 63
    1868:	f8 94       	cli
    186a:	de bf       	out	0x3e, r29	; 62
    186c:	0f be       	out	0x3f, r0	; 63
    186e:	cd bf       	out	0x3d, r28	; 61
    1870:	8c 01       	movw	r16, r24
    1872:	6b 01       	movw	r12, r22
    1874:	db 01       	movw	r26, r22
    1876:	0d 90       	ld	r0, X+
    1878:	00 20       	and	r0, r0
    187a:	e9 f7       	brne	.-6      	; 0x1876 <umqtt_subscribe+0x26>
    187c:	fd 01       	movw	r30, r26
    187e:	31 97       	sbiw	r30, 0x01	; 1
    1880:	7f 01       	movw	r14, r30
    1882:	e6 1a       	sub	r14, r22
    1884:	f7 0a       	sbc	r15, r23
    1886:	19 86       	std	Y+9, r1	; 0x09
    1888:	82 e8       	ldi	r24, 0x82	; 130
    188a:	8a 87       	std	Y+10, r24	; 0x0a
    188c:	d8 01       	movw	r26, r16
    188e:	92 96       	adiw	r26, 0x22	; 34
    1890:	8d 91       	ld	r24, X+
    1892:	9c 91       	ld	r25, X
    1894:	93 97       	sbiw	r26, 0x23	; 35
    1896:	9f 83       	std	Y+7, r25	; 0x07
    1898:	88 87       	std	Y+8, r24	; 0x08
    189a:	01 96       	adiw	r24, 0x01	; 1
    189c:	93 96       	adiw	r26, 0x23	; 35
    189e:	9c 93       	st	X, r25
    18a0:	8e 93       	st	-X, r24
    18a2:	92 97       	sbiw	r26, 0x22	; 34
    18a4:	9e 2d       	mov	r25, r14
    18a6:	8f 2d       	mov	r24, r15
    18a8:	9e 83       	std	Y+6, r25	; 0x06
    18aa:	8d 83       	std	Y+5, r24	; 0x05
    18ac:	41 e0       	ldi	r20, 0x01	; 1
    18ae:	50 e0       	ldi	r21, 0x00	; 0
    18b0:	be 01       	movw	r22, r28
    18b2:	66 5f       	subi	r22, 0xF6	; 246
    18b4:	7f 4f       	sbci	r23, 0xFF	; 255
    18b6:	c8 01       	movw	r24, r16
    18b8:	0e 94 fc 0a 	call	0x15f8	; 0x15f8 <umqtt_circ_push>
    18bc:	be 01       	movw	r22, r28
    18be:	6f 5f       	subi	r22, 0xFF	; 255
    18c0:	7f 4f       	sbci	r23, 0xFF	; 255
    18c2:	c7 01       	movw	r24, r14
    18c4:	05 96       	adiw	r24, 0x05	; 5
    18c6:	0e 94 d5 0a 	call	0x15aa	; 0x15aa <umqtt_encode_length>
    18ca:	ac 01       	movw	r20, r24
    18cc:	be 01       	movw	r22, r28
    18ce:	6f 5f       	subi	r22, 0xFF	; 255
    18d0:	7f 4f       	sbci	r23, 0xFF	; 255
    18d2:	c8 01       	movw	r24, r16
    18d4:	0e 94 fc 0a 	call	0x15f8	; 0x15f8 <umqtt_circ_push>
    18d8:	42 e0       	ldi	r20, 0x02	; 2
    18da:	50 e0       	ldi	r21, 0x00	; 0
    18dc:	be 01       	movw	r22, r28
    18de:	69 5f       	subi	r22, 0xF9	; 249
    18e0:	7f 4f       	sbci	r23, 0xFF	; 255
    18e2:	c8 01       	movw	r24, r16
    18e4:	0e 94 fc 0a 	call	0x15f8	; 0x15f8 <umqtt_circ_push>
    18e8:	42 e0       	ldi	r20, 0x02	; 2
    18ea:	50 e0       	ldi	r21, 0x00	; 0
    18ec:	be 01       	movw	r22, r28
    18ee:	6b 5f       	subi	r22, 0xFB	; 251
    18f0:	7f 4f       	sbci	r23, 0xFF	; 255
    18f2:	c8 01       	movw	r24, r16
    18f4:	0e 94 fc 0a 	call	0x15f8	; 0x15f8 <umqtt_circ_push>
    18f8:	a7 01       	movw	r20, r14
    18fa:	b6 01       	movw	r22, r12
    18fc:	c8 01       	movw	r24, r16
    18fe:	0e 94 fc 0a 	call	0x15f8	; 0x15f8 <umqtt_circ_push>
    1902:	41 e0       	ldi	r20, 0x01	; 1
    1904:	50 e0       	ldi	r21, 0x00	; 0
    1906:	be 01       	movw	r22, r28
    1908:	67 5f       	subi	r22, 0xF7	; 247
    190a:	7f 4f       	sbci	r23, 0xFF	; 255
    190c:	c8 01       	movw	r24, r16
    190e:	0e 94 fc 0a 	call	0x15f8	; 0x15f8 <umqtt_circ_push>
    1912:	f8 01       	movw	r30, r16
    1914:	86 8d       	ldd	r24, Z+30	; 0x1e
    1916:	97 8d       	ldd	r25, Z+31	; 0x1f
    1918:	01 96       	adiw	r24, 0x01	; 1
    191a:	97 8f       	std	Z+31, r25	; 0x1f
    191c:	86 8f       	std	Z+30, r24	; 0x1e
    191e:	00 8c       	ldd	r0, Z+24	; 0x18
    1920:	f1 8d       	ldd	r31, Z+25	; 0x19
    1922:	e0 2d       	mov	r30, r0
    1924:	30 97       	sbiw	r30, 0x00	; 0
    1926:	11 f0       	breq	.+4      	; 0x192c <umqtt_subscribe+0xdc>
    1928:	c8 01       	movw	r24, r16
    192a:	09 95       	icall
    192c:	2a 96       	adiw	r28, 0x0a	; 10
    192e:	0f b6       	in	r0, 0x3f	; 63
    1930:	f8 94       	cli
    1932:	de bf       	out	0x3e, r29	; 62
    1934:	0f be       	out	0x3f, r0	; 63
    1936:	cd bf       	out	0x3d, r28	; 61
    1938:	df 91       	pop	r29
    193a:	cf 91       	pop	r28
    193c:	1f 91       	pop	r17
    193e:	0f 91       	pop	r16
    1940:	ff 90       	pop	r15
    1942:	ef 90       	pop	r14
    1944:	df 90       	pop	r13
    1946:	cf 90       	pop	r12
    1948:	08 95       	ret

0000194a <umqtt_publish>:
    194a:	8f 92       	push	r8
    194c:	9f 92       	push	r9
    194e:	af 92       	push	r10
    1950:	bf 92       	push	r11
    1952:	cf 92       	push	r12
    1954:	df 92       	push	r13
    1956:	ef 92       	push	r14
    1958:	ff 92       	push	r15
    195a:	0f 93       	push	r16
    195c:	1f 93       	push	r17
    195e:	cf 93       	push	r28
    1960:	df 93       	push	r29
    1962:	cd b7       	in	r28, 0x3d	; 61
    1964:	de b7       	in	r29, 0x3e	; 62
    1966:	27 97       	sbiw	r28, 0x07	; 7
    1968:	0f b6       	in	r0, 0x3f	; 63
    196a:	f8 94       	cli
    196c:	de bf       	out	0x3e, r29	; 62
    196e:	0f be       	out	0x3f, r0	; 63
    1970:	cd bf       	out	0x3d, r28	; 61
    1972:	7c 01       	movw	r14, r24
    1974:	6b 01       	movw	r12, r22
    1976:	4a 01       	movw	r8, r20
    1978:	59 01       	movw	r10, r18
    197a:	db 01       	movw	r26, r22
    197c:	0d 90       	ld	r0, X+
    197e:	00 20       	and	r0, r0
    1980:	e9 f7       	brne	.-6      	; 0x197c <umqtt_publish+0x32>
    1982:	8d 01       	movw	r16, r26
    1984:	01 50       	subi	r16, 0x01	; 1
    1986:	11 09       	sbc	r17, r1
    1988:	06 1b       	sub	r16, r22
    198a:	17 0b       	sbc	r17, r23
    198c:	80 e3       	ldi	r24, 0x30	; 48
    198e:	8f 83       	std	Y+7, r24	; 0x07
    1990:	41 e0       	ldi	r20, 0x01	; 1
    1992:	50 e0       	ldi	r21, 0x00	; 0
    1994:	be 01       	movw	r22, r28
    1996:	69 5f       	subi	r22, 0xF9	; 249
    1998:	7f 4f       	sbci	r23, 0xFF	; 255
    199a:	c7 01       	movw	r24, r14
    199c:	0e 94 fc 0a 	call	0x15f8	; 0x15f8 <umqtt_circ_push>
    19a0:	c8 01       	movw	r24, r16
    19a2:	02 96       	adiw	r24, 0x02	; 2
    19a4:	be 01       	movw	r22, r28
    19a6:	6f 5f       	subi	r22, 0xFF	; 255
    19a8:	7f 4f       	sbci	r23, 0xFF	; 255
    19aa:	8a 0d       	add	r24, r10
    19ac:	9b 1d       	adc	r25, r11
    19ae:	0e 94 d5 0a 	call	0x15aa	; 0x15aa <umqtt_encode_length>
    19b2:	ac 01       	movw	r20, r24
    19b4:	be 01       	movw	r22, r28
    19b6:	6f 5f       	subi	r22, 0xFF	; 255
    19b8:	7f 4f       	sbci	r23, 0xFF	; 255
    19ba:	c7 01       	movw	r24, r14
    19bc:	0e 94 fc 0a 	call	0x15f8	; 0x15f8 <umqtt_circ_push>
    19c0:	1d 83       	std	Y+5, r17	; 0x05
    19c2:	0e 83       	std	Y+6, r16	; 0x06
    19c4:	42 e0       	ldi	r20, 0x02	; 2
    19c6:	50 e0       	ldi	r21, 0x00	; 0
    19c8:	be 01       	movw	r22, r28
    19ca:	6b 5f       	subi	r22, 0xFB	; 251
    19cc:	7f 4f       	sbci	r23, 0xFF	; 255
    19ce:	c7 01       	movw	r24, r14
    19d0:	0e 94 fc 0a 	call	0x15f8	; 0x15f8 <umqtt_circ_push>
    19d4:	a8 01       	movw	r20, r16
    19d6:	b6 01       	movw	r22, r12
    19d8:	c7 01       	movw	r24, r14
    19da:	0e 94 fc 0a 	call	0x15f8	; 0x15f8 <umqtt_circ_push>
    19de:	a5 01       	movw	r20, r10
    19e0:	b4 01       	movw	r22, r8
    19e2:	c7 01       	movw	r24, r14
    19e4:	0e 94 fc 0a 	call	0x15f8	; 0x15f8 <umqtt_circ_push>
    19e8:	d7 01       	movw	r26, r14
    19ea:	58 96       	adiw	r26, 0x18	; 24
    19ec:	ed 91       	ld	r30, X+
    19ee:	fc 91       	ld	r31, X
    19f0:	59 97       	sbiw	r26, 0x19	; 25
    19f2:	30 97       	sbiw	r30, 0x00	; 0
    19f4:	11 f0       	breq	.+4      	; 0x19fa <umqtt_publish+0xb0>
    19f6:	c7 01       	movw	r24, r14
    19f8:	09 95       	icall
    19fa:	27 96       	adiw	r28, 0x07	; 7
    19fc:	0f b6       	in	r0, 0x3f	; 63
    19fe:	f8 94       	cli
    1a00:	de bf       	out	0x3e, r29	; 62
    1a02:	0f be       	out	0x3f, r0	; 63
    1a04:	cd bf       	out	0x3d, r28	; 61
    1a06:	df 91       	pop	r29
    1a08:	cf 91       	pop	r28
    1a0a:	1f 91       	pop	r17
    1a0c:	0f 91       	pop	r16
    1a0e:	ff 90       	pop	r15
    1a10:	ef 90       	pop	r14
    1a12:	df 90       	pop	r13
    1a14:	cf 90       	pop	r12
    1a16:	bf 90       	pop	r11
    1a18:	af 90       	pop	r10
    1a1a:	9f 90       	pop	r9
    1a1c:	8f 90       	pop	r8
    1a1e:	08 95       	ret

00001a20 <umqtt_ping>:
    1a20:	0f 93       	push	r16
    1a22:	1f 93       	push	r17
    1a24:	cf 93       	push	r28
    1a26:	df 93       	push	r29
    1a28:	00 d0       	rcall	.+0      	; 0x1a2a <umqtt_ping+0xa>
    1a2a:	cd b7       	in	r28, 0x3d	; 61
    1a2c:	de b7       	in	r29, 0x3e	; 62
    1a2e:	8c 01       	movw	r16, r24
    1a30:	80 ec       	ldi	r24, 0xC0	; 192
    1a32:	89 83       	std	Y+1, r24	; 0x01
    1a34:	1a 82       	std	Y+2, r1	; 0x02
    1a36:	42 e0       	ldi	r20, 0x02	; 2
    1a38:	50 e0       	ldi	r21, 0x00	; 0
    1a3a:	be 01       	movw	r22, r28
    1a3c:	6f 5f       	subi	r22, 0xFF	; 255
    1a3e:	7f 4f       	sbci	r23, 0xFF	; 255
    1a40:	c8 01       	movw	r24, r16
    1a42:	0e 94 fc 0a 	call	0x15f8	; 0x15f8 <umqtt_circ_push>
    1a46:	d8 01       	movw	r26, r16
    1a48:	90 96       	adiw	r26, 0x20	; 32
    1a4a:	8d 91       	ld	r24, X+
    1a4c:	9c 91       	ld	r25, X
    1a4e:	91 97       	sbiw	r26, 0x21	; 33
    1a50:	01 96       	adiw	r24, 0x01	; 1
    1a52:	91 96       	adiw	r26, 0x21	; 33
    1a54:	9c 93       	st	X, r25
    1a56:	8e 93       	st	-X, r24
    1a58:	90 97       	sbiw	r26, 0x20	; 32
    1a5a:	58 96       	adiw	r26, 0x18	; 24
    1a5c:	ed 91       	ld	r30, X+
    1a5e:	fc 91       	ld	r31, X
    1a60:	59 97       	sbiw	r26, 0x19	; 25
    1a62:	30 97       	sbiw	r30, 0x00	; 0
    1a64:	11 f0       	breq	.+4      	; 0x1a6a <umqtt_ping+0x4a>
    1a66:	c8 01       	movw	r24, r16
    1a68:	09 95       	icall
    1a6a:	0f 90       	pop	r0
    1a6c:	0f 90       	pop	r0
    1a6e:	df 91       	pop	r29
    1a70:	cf 91       	pop	r28
    1a72:	1f 91       	pop	r17
    1a74:	0f 91       	pop	r16
    1a76:	08 95       	ret

00001a78 <umqtt_process>:
    1a78:	2f 92       	push	r2
    1a7a:	3f 92       	push	r3
    1a7c:	4f 92       	push	r4
    1a7e:	5f 92       	push	r5
    1a80:	6f 92       	push	r6
    1a82:	7f 92       	push	r7
    1a84:	8f 92       	push	r8
    1a86:	9f 92       	push	r9
    1a88:	af 92       	push	r10
    1a8a:	bf 92       	push	r11
    1a8c:	cf 92       	push	r12
    1a8e:	df 92       	push	r13
    1a90:	ef 92       	push	r14
    1a92:	ff 92       	push	r15
    1a94:	0f 93       	push	r16
    1a96:	1f 93       	push	r17
    1a98:	cf 93       	push	r28
    1a9a:	df 93       	push	r29
    1a9c:	cd b7       	in	r28, 0x3d	; 61
    1a9e:	de b7       	in	r29, 0x3e	; 62
    1aa0:	2f 97       	sbiw	r28, 0x0f	; 15
    1aa2:	0f b6       	in	r0, 0x3f	; 63
    1aa4:	f8 94       	cli
    1aa6:	de bf       	out	0x3e, r29	; 62
    1aa8:	0f be       	out	0x3f, r0	; 63
    1aaa:	cd bf       	out	0x3d, r28	; 61
    1aac:	8c 01       	movw	r16, r24
    1aae:	2d b7       	in	r18, 0x3d	; 61
    1ab0:	3e b7       	in	r19, 0x3e	; 62
    1ab2:	3f 87       	std	Y+15, r19	; 0x0f
    1ab4:	2e 87       	std	Y+14, r18	; 0x0e
    1ab6:	6c 01       	movw	r12, r24
    1ab8:	38 e0       	ldi	r19, 0x08	; 8
    1aba:	c3 0e       	add	r12, r19
    1abc:	d1 1c       	adc	r13, r1
    1abe:	ce 01       	movw	r24, r28
    1ac0:	01 96       	adiw	r24, 0x01	; 1
    1ac2:	9f 83       	std	Y+7, r25	; 0x07
    1ac4:	8e 83       	std	Y+6, r24	; 0x06
    1ac6:	de 01       	movw	r26, r28
    1ac8:	16 96       	adiw	r26, 0x06	; 6
    1aca:	b9 87       	std	Y+9, r27	; 0x09
    1acc:	a8 87       	std	Y+8, r26	; 0x08
    1ace:	d8 01       	movw	r26, r16
    1ad0:	1e 96       	adiw	r26, 0x0e	; 14
    1ad2:	8d 91       	ld	r24, X+
    1ad4:	9c 91       	ld	r25, X
    1ad6:	1f 97       	sbiw	r26, 0x0f	; 15
    1ad8:	02 97       	sbiw	r24, 0x02	; 2
    1ada:	0c f4       	brge	.+2      	; 0x1ade <umqtt_process+0x66>
    1adc:	e8 c0       	rjmp	.+464    	; 0x1cae <umqtt_process+0x236>
    1ade:	42 e0       	ldi	r20, 0x02	; 2
    1ae0:	50 e0       	ldi	r21, 0x00	; 0
    1ae2:	be 01       	movw	r22, r28
    1ae4:	6f 5f       	subi	r22, 0xFF	; 255
    1ae6:	7f 4f       	sbci	r23, 0xFF	; 255
    1ae8:	c6 01       	movw	r24, r12
    1aea:	0e 94 45 0b 	call	0x168a	; 0x168a <umqtt_circ_pop>
    1aee:	fe 01       	movw	r30, r28
    1af0:	32 96       	adiw	r30, 0x02	; 2
    1af2:	7f 01       	movw	r14, r30
    1af4:	d7 01       	movw	r26, r14
    1af6:	8d 91       	ld	r24, X+
    1af8:	7d 01       	movw	r14, r26
    1afa:	87 ff       	sbrs	r24, 7
    1afc:	0c c0       	rjmp	.+24     	; 0x1b16 <umqtt_process+0x9e>
    1afe:	e8 85       	ldd	r30, Y+8	; 0x08
    1b00:	f9 85       	ldd	r31, Y+9	; 0x09
    1b02:	ae 17       	cp	r26, r30
    1b04:	bf 07       	cpc	r27, r31
    1b06:	39 f0       	breq	.+14     	; 0x1b16 <umqtt_process+0x9e>
    1b08:	41 e0       	ldi	r20, 0x01	; 1
    1b0a:	50 e0       	ldi	r21, 0x00	; 0
    1b0c:	b7 01       	movw	r22, r14
    1b0e:	c6 01       	movw	r24, r12
    1b10:	0e 94 45 0b 	call	0x168a	; 0x168a <umqtt_circ_pop>
    1b14:	ef cf       	rjmp	.-34     	; 0x1af4 <umqtt_process+0x7c>
    1b16:	fe 01       	movw	r30, r28
    1b18:	32 96       	adiw	r30, 0x02	; 2
    1b1a:	81 2c       	mov	r8, r1
    1b1c:	91 2c       	mov	r9, r1
    1b1e:	81 e0       	ldi	r24, 0x01	; 1
    1b20:	90 e0       	ldi	r25, 0x00	; 0
    1b22:	40 81       	ld	r20, Z
    1b24:	54 2f       	mov	r21, r20
    1b26:	5f 77       	andi	r21, 0x7F	; 127
    1b28:	58 9f       	mul	r21, r24
    1b2a:	90 01       	movw	r18, r0
    1b2c:	59 9f       	mul	r21, r25
    1b2e:	30 0d       	add	r19, r0
    1b30:	11 24       	eor	r1, r1
    1b32:	82 0e       	add	r8, r18
    1b34:	93 1e       	adc	r9, r19
    1b36:	96 95       	lsr	r25
    1b38:	98 2f       	mov	r25, r24
    1b3a:	88 27       	eor	r24, r24
    1b3c:	97 95       	ror	r25
    1b3e:	87 95       	ror	r24
    1b40:	2e 81       	ldd	r18, Y+6	; 0x06
    1b42:	3f 81       	ldd	r19, Y+7	; 0x07
    1b44:	e2 17       	cp	r30, r18
    1b46:	f3 07       	cpc	r31, r19
    1b48:	11 f4       	brne	.+4      	; 0x1b4e <umqtt_process+0xd6>
    1b4a:	31 96       	adiw	r30, 0x01	; 1
    1b4c:	ea cf       	rjmp	.-44     	; 0x1b22 <umqtt_process+0xaa>
    1b4e:	47 fd       	sbrc	r20, 7
    1b50:	fc cf       	rjmp	.-8      	; 0x1b4a <umqtt_process+0xd2>
    1b52:	b9 80       	ldd	r11, Y+1	; 0x01
    1b54:	8d b7       	in	r24, 0x3d	; 61
    1b56:	9e b7       	in	r25, 0x3e	; 62
    1b58:	9b 87       	std	Y+11, r25	; 0x0b
    1b5a:	8a 87       	std	Y+10, r24	; 0x0a
    1b5c:	ad b7       	in	r26, 0x3d	; 61
    1b5e:	be b7       	in	r27, 0x3e	; 62
    1b60:	a8 19       	sub	r26, r8
    1b62:	b9 09       	sbc	r27, r9
    1b64:	0f b6       	in	r0, 0x3f	; 63
    1b66:	f8 94       	cli
    1b68:	be bf       	out	0x3e, r27	; 62
    1b6a:	0f be       	out	0x3f, r0	; 63
    1b6c:	ad bf       	out	0x3d, r26	; 61
    1b6e:	ed b7       	in	r30, 0x3d	; 61
    1b70:	fe b7       	in	r31, 0x3e	; 62
    1b72:	31 96       	adiw	r30, 0x01	; 1
    1b74:	7f 01       	movw	r14, r30
    1b76:	a4 01       	movw	r20, r8
    1b78:	bf 01       	movw	r22, r30
    1b7a:	c6 01       	movw	r24, r12
    1b7c:	0e 94 45 0b 	call	0x168a	; 0x168a <umqtt_circ_pop>
    1b80:	8b 2d       	mov	r24, r11
    1b82:	82 95       	swap	r24
    1b84:	8f 70       	andi	r24, 0x0F	; 15
    1b86:	83 30       	cpi	r24, 0x03	; 3
    1b88:	81 f1       	breq	.+96     	; 0x1bea <umqtt_process+0x172>
    1b8a:	18 f4       	brcc	.+6      	; 0x1b92 <umqtt_process+0x11a>
    1b8c:	82 30       	cpi	r24, 0x02	; 2
    1b8e:	69 f0       	breq	.+26     	; 0x1baa <umqtt_process+0x132>
    1b90:	86 c0       	rjmp	.+268    	; 0x1c9e <umqtt_process+0x226>
    1b92:	89 30       	cpi	r24, 0x09	; 9
    1b94:	f9 f0       	breq	.+62     	; 0x1bd4 <umqtt_process+0x15c>
    1b96:	8d 30       	cpi	r24, 0x0D	; 13
    1b98:	09 f0       	breq	.+2      	; 0x1b9c <umqtt_process+0x124>
    1b9a:	81 c0       	rjmp	.+258    	; 0x1c9e <umqtt_process+0x226>
    1b9c:	f8 01       	movw	r30, r16
    1b9e:	80 a1       	ldd	r24, Z+32	; 0x20
    1ba0:	91 a1       	ldd	r25, Z+33	; 0x21
    1ba2:	01 97       	sbiw	r24, 0x01	; 1
    1ba4:	91 a3       	std	Z+33, r25	; 0x21
    1ba6:	80 a3       	std	Z+32, r24	; 0x20
    1ba8:	7a c0       	rjmp	.+244    	; 0x1c9e <umqtt_process+0x226>
    1baa:	d7 01       	movw	r26, r14
    1bac:	11 96       	adiw	r26, 0x01	; 1
    1bae:	9c 91       	ld	r25, X
    1bb0:	91 11       	cpse	r25, r1
    1bb2:	0b c0       	rjmp	.+22     	; 0x1bca <umqtt_process+0x152>
    1bb4:	f8 01       	movw	r30, r16
    1bb6:	83 a7       	std	Z+43, r24	; 0x2b
    1bb8:	04 88       	ldd	r0, Z+20	; 0x14
    1bba:	f5 89       	ldd	r31, Z+21	; 0x15
    1bbc:	e0 2d       	mov	r30, r0
    1bbe:	30 97       	sbiw	r30, 0x00	; 0
    1bc0:	09 f4       	brne	.+2      	; 0x1bc4 <umqtt_process+0x14c>
    1bc2:	6d c0       	rjmp	.+218    	; 0x1c9e <umqtt_process+0x226>
    1bc4:	c8 01       	movw	r24, r16
    1bc6:	09 95       	icall
    1bc8:	6a c0       	rjmp	.+212    	; 0x1c9e <umqtt_process+0x226>
    1bca:	e3 e0       	ldi	r30, 0x03	; 3
    1bcc:	d8 01       	movw	r26, r16
    1bce:	9b 96       	adiw	r26, 0x2b	; 43
    1bd0:	ec 93       	st	X, r30
    1bd2:	65 c0       	rjmp	.+202    	; 0x1c9e <umqtt_process+0x226>
    1bd4:	d8 01       	movw	r26, r16
    1bd6:	5e 96       	adiw	r26, 0x1e	; 30
    1bd8:	8d 91       	ld	r24, X+
    1bda:	9c 91       	ld	r25, X
    1bdc:	5f 97       	sbiw	r26, 0x1f	; 31
    1bde:	01 97       	sbiw	r24, 0x01	; 1
    1be0:	5f 96       	adiw	r26, 0x1f	; 31
    1be2:	9c 93       	st	X, r25
    1be4:	8e 93       	st	-X, r24
    1be6:	5e 97       	sbiw	r26, 0x1e	; 30
    1be8:	5a c0       	rjmp	.+180    	; 0x1c9e <umqtt_process+0x226>
    1bea:	2d b7       	in	r18, 0x3d	; 61
    1bec:	3e b7       	in	r19, 0x3e	; 62
    1bee:	3d 87       	std	Y+13, r19	; 0x0d
    1bf0:	2c 87       	std	Y+12, r18	; 0x0c
    1bf2:	d7 01       	movw	r26, r14
    1bf4:	6c 90       	ld	r6, X
    1bf6:	71 2c       	mov	r7, r1
    1bf8:	76 2c       	mov	r7, r6
    1bfa:	66 24       	eor	r6, r6
    1bfc:	11 96       	adiw	r26, 0x01	; 1
    1bfe:	8c 91       	ld	r24, X
    1c00:	68 2a       	or	r6, r24
    1c02:	a3 01       	movw	r20, r6
    1c04:	4f 5f       	subi	r20, 0xFF	; 255
    1c06:	5f 4f       	sbci	r21, 0xFF	; 255
    1c08:	ed b7       	in	r30, 0x3d	; 61
    1c0a:	fe b7       	in	r31, 0x3e	; 62
    1c0c:	e4 1b       	sub	r30, r20
    1c0e:	f5 0b       	sbc	r31, r21
    1c10:	0f b6       	in	r0, 0x3f	; 63
    1c12:	f8 94       	cli
    1c14:	fe bf       	out	0x3e, r31	; 62
    1c16:	0f be       	out	0x3f, r0	; 63
    1c18:	ed bf       	out	0x3d, r30	; 61
    1c1a:	2d b7       	in	r18, 0x3d	; 61
    1c1c:	3e b7       	in	r19, 0x3e	; 62
    1c1e:	2f 5f       	subi	r18, 0xFF	; 255
    1c20:	3f 4f       	sbci	r19, 0xFF	; 255
    1c22:	59 01       	movw	r10, r18
    1c24:	14 01       	movw	r2, r8
    1c26:	26 18       	sub	r2, r6
    1c28:	37 08       	sbc	r3, r7
    1c2a:	21 01       	movw	r4, r2
    1c2c:	31 e0       	ldi	r19, 0x01	; 1
    1c2e:	43 1a       	sub	r4, r19
    1c30:	51 08       	sbc	r5, r1
    1c32:	8d b7       	in	r24, 0x3d	; 61
    1c34:	9e b7       	in	r25, 0x3e	; 62
    1c36:	84 19       	sub	r24, r4
    1c38:	95 09       	sbc	r25, r5
    1c3a:	0f b6       	in	r0, 0x3f	; 63
    1c3c:	f8 94       	cli
    1c3e:	9e bf       	out	0x3e, r25	; 62
    1c40:	0f be       	out	0x3f, r0	; 63
    1c42:	8d bf       	out	0x3d, r24	; 61
    1c44:	ad b7       	in	r26, 0x3d	; 61
    1c46:	be b7       	in	r27, 0x3e	; 62
    1c48:	11 96       	adiw	r26, 0x01	; 1
    1c4a:	4d 01       	movw	r8, r26
    1c4c:	b7 01       	movw	r22, r14
    1c4e:	6e 5f       	subi	r22, 0xFE	; 254
    1c50:	7f 4f       	sbci	r23, 0xFF	; 255
    1c52:	c5 01       	movw	r24, r10
    1c54:	0e 94 b5 0e 	call	0x1d6a	; 0x1d6a <memcpy>
    1c58:	f5 01       	movw	r30, r10
    1c5a:	e6 0d       	add	r30, r6
    1c5c:	f7 1d       	adc	r31, r7
    1c5e:	10 82       	st	Z, r1
    1c60:	b3 01       	movw	r22, r6
    1c62:	6e 5f       	subi	r22, 0xFE	; 254
    1c64:	7f 4f       	sbci	r23, 0xFF	; 255
    1c66:	6e 0d       	add	r22, r14
    1c68:	7f 1d       	adc	r23, r15
    1c6a:	a2 01       	movw	r20, r4
    1c6c:	c4 01       	movw	r24, r8
    1c6e:	0e 94 b5 0e 	call	0x1d6a	; 0x1d6a <memcpy>
    1c72:	f4 01       	movw	r30, r8
    1c74:	e2 0d       	add	r30, r2
    1c76:	f3 1d       	adc	r31, r3
    1c78:	32 97       	sbiw	r30, 0x02	; 2
    1c7a:	10 82       	st	Z, r1
    1c7c:	d8 01       	movw	r26, r16
    1c7e:	56 96       	adiw	r26, 0x16	; 22
    1c80:	ed 91       	ld	r30, X+
    1c82:	fc 91       	ld	r31, X
    1c84:	57 97       	sbiw	r26, 0x17	; 23
    1c86:	92 01       	movw	r18, r4
    1c88:	a4 01       	movw	r20, r8
    1c8a:	b5 01       	movw	r22, r10
    1c8c:	c8 01       	movw	r24, r16
    1c8e:	09 95       	icall
    1c90:	ec 85       	ldd	r30, Y+12	; 0x0c
    1c92:	fd 85       	ldd	r31, Y+13	; 0x0d
    1c94:	0f b6       	in	r0, 0x3f	; 63
    1c96:	f8 94       	cli
    1c98:	fe bf       	out	0x3e, r31	; 62
    1c9a:	0f be       	out	0x3f, r0	; 63
    1c9c:	ed bf       	out	0x3d, r30	; 61
    1c9e:	2a 85       	ldd	r18, Y+10	; 0x0a
    1ca0:	3b 85       	ldd	r19, Y+11	; 0x0b
    1ca2:	0f b6       	in	r0, 0x3f	; 63
    1ca4:	f8 94       	cli
    1ca6:	3e bf       	out	0x3e, r19	; 62
    1ca8:	0f be       	out	0x3f, r0	; 63
    1caa:	2d bf       	out	0x3d, r18	; 61
    1cac:	10 cf       	rjmp	.-480    	; 0x1ace <umqtt_process+0x56>
    1cae:	ee 85       	ldd	r30, Y+14	; 0x0e
    1cb0:	ff 85       	ldd	r31, Y+15	; 0x0f
    1cb2:	0f b6       	in	r0, 0x3f	; 63
    1cb4:	f8 94       	cli
    1cb6:	fe bf       	out	0x3e, r31	; 62
    1cb8:	0f be       	out	0x3f, r0	; 63
    1cba:	ed bf       	out	0x3d, r30	; 61
    1cbc:	2f 96       	adiw	r28, 0x0f	; 15
    1cbe:	0f b6       	in	r0, 0x3f	; 63
    1cc0:	f8 94       	cli
    1cc2:	de bf       	out	0x3e, r29	; 62
    1cc4:	0f be       	out	0x3f, r0	; 63
    1cc6:	cd bf       	out	0x3d, r28	; 61
    1cc8:	df 91       	pop	r29
    1cca:	cf 91       	pop	r28
    1ccc:	1f 91       	pop	r17
    1cce:	0f 91       	pop	r16
    1cd0:	ff 90       	pop	r15
    1cd2:	ef 90       	pop	r14
    1cd4:	df 90       	pop	r13
    1cd6:	cf 90       	pop	r12
    1cd8:	bf 90       	pop	r11
    1cda:	af 90       	pop	r10
    1cdc:	9f 90       	pop	r9
    1cde:	8f 90       	pop	r8
    1ce0:	7f 90       	pop	r7
    1ce2:	6f 90       	pop	r6
    1ce4:	5f 90       	pop	r5
    1ce6:	4f 90       	pop	r4
    1ce8:	3f 90       	pop	r3
    1cea:	2f 90       	pop	r2
    1cec:	08 95       	ret

00001cee <__udivmodhi4>:
    1cee:	aa 1b       	sub	r26, r26
    1cf0:	bb 1b       	sub	r27, r27
    1cf2:	51 e1       	ldi	r21, 0x11	; 17
    1cf4:	07 c0       	rjmp	.+14     	; 0x1d04 <__udivmodhi4_ep>

00001cf6 <__udivmodhi4_loop>:
    1cf6:	aa 1f       	adc	r26, r26
    1cf8:	bb 1f       	adc	r27, r27
    1cfa:	a6 17       	cp	r26, r22
    1cfc:	b7 07       	cpc	r27, r23
    1cfe:	10 f0       	brcs	.+4      	; 0x1d04 <__udivmodhi4_ep>
    1d00:	a6 1b       	sub	r26, r22
    1d02:	b7 0b       	sbc	r27, r23

00001d04 <__udivmodhi4_ep>:
    1d04:	88 1f       	adc	r24, r24
    1d06:	99 1f       	adc	r25, r25
    1d08:	5a 95       	dec	r21
    1d0a:	a9 f7       	brne	.-22     	; 0x1cf6 <__udivmodhi4_loop>
    1d0c:	80 95       	com	r24
    1d0e:	90 95       	com	r25
    1d10:	bc 01       	movw	r22, r24
    1d12:	cd 01       	movw	r24, r26
    1d14:	08 95       	ret

00001d16 <__divmodhi4>:
    1d16:	97 fb       	bst	r25, 7
    1d18:	07 2e       	mov	r0, r23
    1d1a:	16 f4       	brtc	.+4      	; 0x1d20 <__divmodhi4+0xa>
    1d1c:	00 94       	com	r0
    1d1e:	07 d0       	rcall	.+14     	; 0x1d2e <__divmodhi4_neg1>
    1d20:	77 fd       	sbrc	r23, 7
    1d22:	09 d0       	rcall	.+18     	; 0x1d36 <__divmodhi4_neg2>
    1d24:	0e 94 77 0e 	call	0x1cee	; 0x1cee <__udivmodhi4>
    1d28:	07 fc       	sbrc	r0, 7
    1d2a:	05 d0       	rcall	.+10     	; 0x1d36 <__divmodhi4_neg2>
    1d2c:	3e f4       	brtc	.+14     	; 0x1d3c <__divmodhi4_exit>

00001d2e <__divmodhi4_neg1>:
    1d2e:	90 95       	com	r25
    1d30:	81 95       	neg	r24
    1d32:	9f 4f       	sbci	r25, 0xFF	; 255
    1d34:	08 95       	ret

00001d36 <__divmodhi4_neg2>:
    1d36:	70 95       	com	r23
    1d38:	61 95       	neg	r22
    1d3a:	7f 4f       	sbci	r23, 0xFF	; 255

00001d3c <__divmodhi4_exit>:
    1d3c:	08 95       	ret

00001d3e <__umulhisi3>:
    1d3e:	a2 9f       	mul	r26, r18
    1d40:	b0 01       	movw	r22, r0
    1d42:	b3 9f       	mul	r27, r19
    1d44:	c0 01       	movw	r24, r0
    1d46:	a3 9f       	mul	r26, r19
    1d48:	70 0d       	add	r23, r0
    1d4a:	81 1d       	adc	r24, r1
    1d4c:	11 24       	eor	r1, r1
    1d4e:	91 1d       	adc	r25, r1
    1d50:	b2 9f       	mul	r27, r18
    1d52:	70 0d       	add	r23, r0
    1d54:	81 1d       	adc	r24, r1
    1d56:	11 24       	eor	r1, r1
    1d58:	91 1d       	adc	r25, r1
    1d5a:	08 95       	ret

00001d5c <strcpy_P>:
    1d5c:	fb 01       	movw	r30, r22
    1d5e:	dc 01       	movw	r26, r24
    1d60:	05 90       	lpm	r0, Z+
    1d62:	0d 92       	st	X+, r0
    1d64:	00 20       	and	r0, r0
    1d66:	e1 f7       	brne	.-8      	; 0x1d60 <strcpy_P+0x4>
    1d68:	08 95       	ret

00001d6a <memcpy>:
    1d6a:	fb 01       	movw	r30, r22
    1d6c:	dc 01       	movw	r26, r24
    1d6e:	02 c0       	rjmp	.+4      	; 0x1d74 <memcpy+0xa>
    1d70:	01 90       	ld	r0, Z+
    1d72:	0d 92       	st	X+, r0
    1d74:	41 50       	subi	r20, 0x01	; 1
    1d76:	50 40       	sbci	r21, 0x00	; 0
    1d78:	d8 f7       	brcc	.-10     	; 0x1d70 <memcpy+0x6>
    1d7a:	08 95       	ret

00001d7c <strcpy>:
    1d7c:	fb 01       	movw	r30, r22
    1d7e:	dc 01       	movw	r26, r24
    1d80:	01 90       	ld	r0, Z+
    1d82:	0d 92       	st	X+, r0
    1d84:	00 20       	and	r0, r0
    1d86:	e1 f7       	brne	.-8      	; 0x1d80 <strcpy+0x4>
    1d88:	08 95       	ret

00001d8a <fgetc>:
    1d8a:	cf 93       	push	r28
    1d8c:	df 93       	push	r29
    1d8e:	ec 01       	movw	r28, r24
    1d90:	2b 81       	ldd	r18, Y+3	; 0x03
    1d92:	20 ff       	sbrs	r18, 0
    1d94:	33 c0       	rjmp	.+102    	; 0x1dfc <fgetc+0x72>
    1d96:	26 ff       	sbrs	r18, 6
    1d98:	0a c0       	rjmp	.+20     	; 0x1dae <fgetc+0x24>
    1d9a:	2f 7b       	andi	r18, 0xBF	; 191
    1d9c:	2b 83       	std	Y+3, r18	; 0x03
    1d9e:	8e 81       	ldd	r24, Y+6	; 0x06
    1da0:	9f 81       	ldd	r25, Y+7	; 0x07
    1da2:	01 96       	adiw	r24, 0x01	; 1
    1da4:	9f 83       	std	Y+7, r25	; 0x07
    1da6:	8e 83       	std	Y+6, r24	; 0x06
    1da8:	8a 81       	ldd	r24, Y+2	; 0x02
    1daa:	90 e0       	ldi	r25, 0x00	; 0
    1dac:	29 c0       	rjmp	.+82     	; 0x1e00 <fgetc+0x76>
    1dae:	22 ff       	sbrs	r18, 2
    1db0:	0f c0       	rjmp	.+30     	; 0x1dd0 <fgetc+0x46>
    1db2:	e8 81       	ld	r30, Y
    1db4:	f9 81       	ldd	r31, Y+1	; 0x01
    1db6:	80 81       	ld	r24, Z
    1db8:	99 27       	eor	r25, r25
    1dba:	87 fd       	sbrc	r24, 7
    1dbc:	90 95       	com	r25
    1dbe:	00 97       	sbiw	r24, 0x00	; 0
    1dc0:	19 f4       	brne	.+6      	; 0x1dc8 <fgetc+0x3e>
    1dc2:	20 62       	ori	r18, 0x20	; 32
    1dc4:	2b 83       	std	Y+3, r18	; 0x03
    1dc6:	1a c0       	rjmp	.+52     	; 0x1dfc <fgetc+0x72>
    1dc8:	31 96       	adiw	r30, 0x01	; 1
    1dca:	f9 83       	std	Y+1, r31	; 0x01
    1dcc:	e8 83       	st	Y, r30
    1dce:	0e c0       	rjmp	.+28     	; 0x1dec <fgetc+0x62>
    1dd0:	ea 85       	ldd	r30, Y+10	; 0x0a
    1dd2:	fb 85       	ldd	r31, Y+11	; 0x0b
    1dd4:	09 95       	icall
    1dd6:	97 ff       	sbrs	r25, 7
    1dd8:	09 c0       	rjmp	.+18     	; 0x1dec <fgetc+0x62>
    1dda:	2b 81       	ldd	r18, Y+3	; 0x03
    1ddc:	01 96       	adiw	r24, 0x01	; 1
    1dde:	11 f4       	brne	.+4      	; 0x1de4 <fgetc+0x5a>
    1de0:	80 e1       	ldi	r24, 0x10	; 16
    1de2:	01 c0       	rjmp	.+2      	; 0x1de6 <fgetc+0x5c>
    1de4:	80 e2       	ldi	r24, 0x20	; 32
    1de6:	82 2b       	or	r24, r18
    1de8:	8b 83       	std	Y+3, r24	; 0x03
    1dea:	08 c0       	rjmp	.+16     	; 0x1dfc <fgetc+0x72>
    1dec:	2e 81       	ldd	r18, Y+6	; 0x06
    1dee:	3f 81       	ldd	r19, Y+7	; 0x07
    1df0:	2f 5f       	subi	r18, 0xFF	; 255
    1df2:	3f 4f       	sbci	r19, 0xFF	; 255
    1df4:	3f 83       	std	Y+7, r19	; 0x07
    1df6:	2e 83       	std	Y+6, r18	; 0x06
    1df8:	99 27       	eor	r25, r25
    1dfa:	02 c0       	rjmp	.+4      	; 0x1e00 <fgetc+0x76>
    1dfc:	8f ef       	ldi	r24, 0xFF	; 255
    1dfe:	9f ef       	ldi	r25, 0xFF	; 255
    1e00:	df 91       	pop	r29
    1e02:	cf 91       	pop	r28
    1e04:	08 95       	ret

00001e06 <fprintf>:
    1e06:	a0 e0       	ldi	r26, 0x00	; 0
    1e08:	b0 e0       	ldi	r27, 0x00	; 0
    1e0a:	e9 e0       	ldi	r30, 0x09	; 9
    1e0c:	ff e0       	ldi	r31, 0x0F	; 15
    1e0e:	0c 94 ee 11 	jmp	0x23dc	; 0x23dc <__prologue_saves__+0x20>
    1e12:	ae 01       	movw	r20, r28
    1e14:	47 5f       	subi	r20, 0xF7	; 247
    1e16:	5f 4f       	sbci	r21, 0xFF	; 255
    1e18:	6f 81       	ldd	r22, Y+7	; 0x07
    1e1a:	78 85       	ldd	r23, Y+8	; 0x08
    1e1c:	8d 81       	ldd	r24, Y+5	; 0x05
    1e1e:	9e 81       	ldd	r25, Y+6	; 0x06
    1e20:	0e 94 98 0f 	call	0x1f30	; 0x1f30 <vfprintf>
    1e24:	e2 e0       	ldi	r30, 0x02	; 2
    1e26:	0c 94 0a 12 	jmp	0x2414	; 0x2414 <__epilogue_restores__+0x20>

00001e2a <fprintf_P>:
    1e2a:	a0 e0       	ldi	r26, 0x00	; 0
    1e2c:	b0 e0       	ldi	r27, 0x00	; 0
    1e2e:	eb e1       	ldi	r30, 0x1B	; 27
    1e30:	ff e0       	ldi	r31, 0x0F	; 15
    1e32:	0c 94 ec 11 	jmp	0x23d8	; 0x23d8 <__prologue_saves__+0x1c>
    1e36:	0f 81       	ldd	r16, Y+7	; 0x07
    1e38:	18 85       	ldd	r17, Y+8	; 0x08
    1e3a:	f8 01       	movw	r30, r16
    1e3c:	83 81       	ldd	r24, Z+3	; 0x03
    1e3e:	88 60       	ori	r24, 0x08	; 8
    1e40:	83 83       	std	Z+3, r24	; 0x03
    1e42:	ae 01       	movw	r20, r28
    1e44:	45 5f       	subi	r20, 0xF5	; 245
    1e46:	5f 4f       	sbci	r21, 0xFF	; 255
    1e48:	69 85       	ldd	r22, Y+9	; 0x09
    1e4a:	7a 85       	ldd	r23, Y+10	; 0x0a
    1e4c:	c8 01       	movw	r24, r16
    1e4e:	0e 94 98 0f 	call	0x1f30	; 0x1f30 <vfprintf>
    1e52:	f8 01       	movw	r30, r16
    1e54:	23 81       	ldd	r18, Z+3	; 0x03
    1e56:	27 7f       	andi	r18, 0xF7	; 247
    1e58:	23 83       	std	Z+3, r18	; 0x03
    1e5a:	e4 e0       	ldi	r30, 0x04	; 4
    1e5c:	0c 94 08 12 	jmp	0x2410	; 0x2410 <__epilogue_restores__+0x1c>

00001e60 <fputc>:
    1e60:	0f 93       	push	r16
    1e62:	1f 93       	push	r17
    1e64:	cf 93       	push	r28
    1e66:	df 93       	push	r29
    1e68:	18 2f       	mov	r17, r24
    1e6a:	09 2f       	mov	r16, r25
    1e6c:	eb 01       	movw	r28, r22
    1e6e:	8b 81       	ldd	r24, Y+3	; 0x03
    1e70:	81 fd       	sbrc	r24, 1
    1e72:	03 c0       	rjmp	.+6      	; 0x1e7a <fputc+0x1a>
    1e74:	8f ef       	ldi	r24, 0xFF	; 255
    1e76:	9f ef       	ldi	r25, 0xFF	; 255
    1e78:	20 c0       	rjmp	.+64     	; 0x1eba <fputc+0x5a>
    1e7a:	82 ff       	sbrs	r24, 2
    1e7c:	10 c0       	rjmp	.+32     	; 0x1e9e <fputc+0x3e>
    1e7e:	4e 81       	ldd	r20, Y+6	; 0x06
    1e80:	5f 81       	ldd	r21, Y+7	; 0x07
    1e82:	2c 81       	ldd	r18, Y+4	; 0x04
    1e84:	3d 81       	ldd	r19, Y+5	; 0x05
    1e86:	42 17       	cp	r20, r18
    1e88:	53 07       	cpc	r21, r19
    1e8a:	7c f4       	brge	.+30     	; 0x1eaa <fputc+0x4a>
    1e8c:	e8 81       	ld	r30, Y
    1e8e:	f9 81       	ldd	r31, Y+1	; 0x01
    1e90:	9f 01       	movw	r18, r30
    1e92:	2f 5f       	subi	r18, 0xFF	; 255
    1e94:	3f 4f       	sbci	r19, 0xFF	; 255
    1e96:	39 83       	std	Y+1, r19	; 0x01
    1e98:	28 83       	st	Y, r18
    1e9a:	10 83       	st	Z, r17
    1e9c:	06 c0       	rjmp	.+12     	; 0x1eaa <fputc+0x4a>
    1e9e:	e8 85       	ldd	r30, Y+8	; 0x08
    1ea0:	f9 85       	ldd	r31, Y+9	; 0x09
    1ea2:	81 2f       	mov	r24, r17
    1ea4:	09 95       	icall
    1ea6:	89 2b       	or	r24, r25
    1ea8:	29 f7       	brne	.-54     	; 0x1e74 <fputc+0x14>
    1eaa:	2e 81       	ldd	r18, Y+6	; 0x06
    1eac:	3f 81       	ldd	r19, Y+7	; 0x07
    1eae:	2f 5f       	subi	r18, 0xFF	; 255
    1eb0:	3f 4f       	sbci	r19, 0xFF	; 255
    1eb2:	3f 83       	std	Y+7, r19	; 0x07
    1eb4:	2e 83       	std	Y+6, r18	; 0x06
    1eb6:	81 2f       	mov	r24, r17
    1eb8:	90 2f       	mov	r25, r16
    1eba:	df 91       	pop	r29
    1ebc:	cf 91       	pop	r28
    1ebe:	1f 91       	pop	r17
    1ec0:	0f 91       	pop	r16
    1ec2:	08 95       	ret

00001ec4 <printf>:
    1ec4:	a0 e0       	ldi	r26, 0x00	; 0
    1ec6:	b0 e0       	ldi	r27, 0x00	; 0
    1ec8:	e8 e6       	ldi	r30, 0x68	; 104
    1eca:	ff e0       	ldi	r31, 0x0F	; 15
    1ecc:	0c 94 ee 11 	jmp	0x23dc	; 0x23dc <__prologue_saves__+0x20>
    1ed0:	fe 01       	movw	r30, r28
    1ed2:	35 96       	adiw	r30, 0x05	; 5
    1ed4:	61 91       	ld	r22, Z+
    1ed6:	71 91       	ld	r23, Z+
    1ed8:	af 01       	movw	r20, r30
    1eda:	80 91 92 05 	lds	r24, 0x0592
    1ede:	90 91 93 05 	lds	r25, 0x0593
    1ee2:	0e 94 98 0f 	call	0x1f30	; 0x1f30 <vfprintf>
    1ee6:	e2 e0       	ldi	r30, 0x02	; 2
    1ee8:	0c 94 0a 12 	jmp	0x2414	; 0x2414 <__epilogue_restores__+0x20>

00001eec <sprintf>:
    1eec:	ae e0       	ldi	r26, 0x0E	; 14
    1eee:	b0 e0       	ldi	r27, 0x00	; 0
    1ef0:	ec e7       	ldi	r30, 0x7C	; 124
    1ef2:	ff e0       	ldi	r31, 0x0F	; 15
    1ef4:	0c 94 ec 11 	jmp	0x23d8	; 0x23d8 <__prologue_saves__+0x1c>
    1ef8:	0d 89       	ldd	r16, Y+21	; 0x15
    1efa:	1e 89       	ldd	r17, Y+22	; 0x16
    1efc:	86 e0       	ldi	r24, 0x06	; 6
    1efe:	8c 83       	std	Y+4, r24	; 0x04
    1f00:	1a 83       	std	Y+2, r17	; 0x02
    1f02:	09 83       	std	Y+1, r16	; 0x01
    1f04:	8f ef       	ldi	r24, 0xFF	; 255
    1f06:	9f e7       	ldi	r25, 0x7F	; 127
    1f08:	9e 83       	std	Y+6, r25	; 0x06
    1f0a:	8d 83       	std	Y+5, r24	; 0x05
    1f0c:	ae 01       	movw	r20, r28
    1f0e:	47 5e       	subi	r20, 0xE7	; 231
    1f10:	5f 4f       	sbci	r21, 0xFF	; 255
    1f12:	6f 89       	ldd	r22, Y+23	; 0x17
    1f14:	78 8d       	ldd	r23, Y+24	; 0x18
    1f16:	ce 01       	movw	r24, r28
    1f18:	01 96       	adiw	r24, 0x01	; 1
    1f1a:	0e 94 98 0f 	call	0x1f30	; 0x1f30 <vfprintf>
    1f1e:	ef 81       	ldd	r30, Y+7	; 0x07
    1f20:	f8 85       	ldd	r31, Y+8	; 0x08
    1f22:	e0 0f       	add	r30, r16
    1f24:	f1 1f       	adc	r31, r17
    1f26:	10 82       	st	Z, r1
    1f28:	2e 96       	adiw	r28, 0x0e	; 14
    1f2a:	e4 e0       	ldi	r30, 0x04	; 4
    1f2c:	0c 94 08 12 	jmp	0x2410	; 0x2410 <__epilogue_restores__+0x1c>

00001f30 <vfprintf>:
    1f30:	ac e0       	ldi	r26, 0x0C	; 12
    1f32:	b0 e0       	ldi	r27, 0x00	; 0
    1f34:	ee e9       	ldi	r30, 0x9E	; 158
    1f36:	ff e0       	ldi	r31, 0x0F	; 15
    1f38:	0c 94 de 11 	jmp	0x23bc	; 0x23bc <__prologue_saves__>
    1f3c:	7c 01       	movw	r14, r24
    1f3e:	6b 01       	movw	r12, r22
    1f40:	8a 01       	movw	r16, r20
    1f42:	fc 01       	movw	r30, r24
    1f44:	17 82       	std	Z+7, r1	; 0x07
    1f46:	16 82       	std	Z+6, r1	; 0x06
    1f48:	83 81       	ldd	r24, Z+3	; 0x03
    1f4a:	81 ff       	sbrs	r24, 1
    1f4c:	bd c1       	rjmp	.+890    	; 0x22c8 <vfprintf+0x398>
    1f4e:	ce 01       	movw	r24, r28
    1f50:	01 96       	adiw	r24, 0x01	; 1
    1f52:	4c 01       	movw	r8, r24
    1f54:	f7 01       	movw	r30, r14
    1f56:	93 81       	ldd	r25, Z+3	; 0x03
    1f58:	f6 01       	movw	r30, r12
    1f5a:	93 fd       	sbrc	r25, 3
    1f5c:	85 91       	lpm	r24, Z+
    1f5e:	93 ff       	sbrs	r25, 3
    1f60:	81 91       	ld	r24, Z+
    1f62:	6f 01       	movw	r12, r30
    1f64:	88 23       	and	r24, r24
    1f66:	09 f4       	brne	.+2      	; 0x1f6a <vfprintf+0x3a>
    1f68:	ab c1       	rjmp	.+854    	; 0x22c0 <vfprintf+0x390>
    1f6a:	85 32       	cpi	r24, 0x25	; 37
    1f6c:	39 f4       	brne	.+14     	; 0x1f7c <vfprintf+0x4c>
    1f6e:	93 fd       	sbrc	r25, 3
    1f70:	85 91       	lpm	r24, Z+
    1f72:	93 ff       	sbrs	r25, 3
    1f74:	81 91       	ld	r24, Z+
    1f76:	6f 01       	movw	r12, r30
    1f78:	85 32       	cpi	r24, 0x25	; 37
    1f7a:	29 f4       	brne	.+10     	; 0x1f86 <vfprintf+0x56>
    1f7c:	b7 01       	movw	r22, r14
    1f7e:	90 e0       	ldi	r25, 0x00	; 0
    1f80:	0e 94 30 0f 	call	0x1e60	; 0x1e60 <fputc>
    1f84:	e7 cf       	rjmp	.-50     	; 0x1f54 <vfprintf+0x24>
    1f86:	51 2c       	mov	r5, r1
    1f88:	31 2c       	mov	r3, r1
    1f8a:	20 e0       	ldi	r18, 0x00	; 0
    1f8c:	20 32       	cpi	r18, 0x20	; 32
    1f8e:	a0 f4       	brcc	.+40     	; 0x1fb8 <vfprintf+0x88>
    1f90:	8b 32       	cpi	r24, 0x2B	; 43
    1f92:	69 f0       	breq	.+26     	; 0x1fae <vfprintf+0x7e>
    1f94:	30 f4       	brcc	.+12     	; 0x1fa2 <vfprintf+0x72>
    1f96:	80 32       	cpi	r24, 0x20	; 32
    1f98:	59 f0       	breq	.+22     	; 0x1fb0 <vfprintf+0x80>
    1f9a:	83 32       	cpi	r24, 0x23	; 35
    1f9c:	69 f4       	brne	.+26     	; 0x1fb8 <vfprintf+0x88>
    1f9e:	20 61       	ori	r18, 0x10	; 16
    1fa0:	2c c0       	rjmp	.+88     	; 0x1ffa <vfprintf+0xca>
    1fa2:	8d 32       	cpi	r24, 0x2D	; 45
    1fa4:	39 f0       	breq	.+14     	; 0x1fb4 <vfprintf+0x84>
    1fa6:	80 33       	cpi	r24, 0x30	; 48
    1fa8:	39 f4       	brne	.+14     	; 0x1fb8 <vfprintf+0x88>
    1faa:	21 60       	ori	r18, 0x01	; 1
    1fac:	26 c0       	rjmp	.+76     	; 0x1ffa <vfprintf+0xca>
    1fae:	22 60       	ori	r18, 0x02	; 2
    1fb0:	24 60       	ori	r18, 0x04	; 4
    1fb2:	23 c0       	rjmp	.+70     	; 0x1ffa <vfprintf+0xca>
    1fb4:	28 60       	ori	r18, 0x08	; 8
    1fb6:	21 c0       	rjmp	.+66     	; 0x1ffa <vfprintf+0xca>
    1fb8:	27 fd       	sbrc	r18, 7
    1fba:	27 c0       	rjmp	.+78     	; 0x200a <vfprintf+0xda>
    1fbc:	30 ed       	ldi	r19, 0xD0	; 208
    1fbe:	38 0f       	add	r19, r24
    1fc0:	3a 30       	cpi	r19, 0x0A	; 10
    1fc2:	78 f4       	brcc	.+30     	; 0x1fe2 <vfprintf+0xb2>
    1fc4:	26 ff       	sbrs	r18, 6
    1fc6:	06 c0       	rjmp	.+12     	; 0x1fd4 <vfprintf+0xa4>
    1fc8:	fa e0       	ldi	r31, 0x0A	; 10
    1fca:	5f 9e       	mul	r5, r31
    1fcc:	30 0d       	add	r19, r0
    1fce:	11 24       	eor	r1, r1
    1fd0:	53 2e       	mov	r5, r19
    1fd2:	13 c0       	rjmp	.+38     	; 0x1ffa <vfprintf+0xca>
    1fd4:	8a e0       	ldi	r24, 0x0A	; 10
    1fd6:	38 9e       	mul	r3, r24
    1fd8:	30 0d       	add	r19, r0
    1fda:	11 24       	eor	r1, r1
    1fdc:	33 2e       	mov	r3, r19
    1fde:	20 62       	ori	r18, 0x20	; 32
    1fe0:	0c c0       	rjmp	.+24     	; 0x1ffa <vfprintf+0xca>
    1fe2:	8e 32       	cpi	r24, 0x2E	; 46
    1fe4:	21 f4       	brne	.+8      	; 0x1fee <vfprintf+0xbe>
    1fe6:	26 fd       	sbrc	r18, 6
    1fe8:	6b c1       	rjmp	.+726    	; 0x22c0 <vfprintf+0x390>
    1fea:	20 64       	ori	r18, 0x40	; 64
    1fec:	06 c0       	rjmp	.+12     	; 0x1ffa <vfprintf+0xca>
    1fee:	8c 36       	cpi	r24, 0x6C	; 108
    1ff0:	11 f4       	brne	.+4      	; 0x1ff6 <vfprintf+0xc6>
    1ff2:	20 68       	ori	r18, 0x80	; 128
    1ff4:	02 c0       	rjmp	.+4      	; 0x1ffa <vfprintf+0xca>
    1ff6:	88 36       	cpi	r24, 0x68	; 104
    1ff8:	41 f4       	brne	.+16     	; 0x200a <vfprintf+0xda>
    1ffa:	f6 01       	movw	r30, r12
    1ffc:	93 fd       	sbrc	r25, 3
    1ffe:	85 91       	lpm	r24, Z+
    2000:	93 ff       	sbrs	r25, 3
    2002:	81 91       	ld	r24, Z+
    2004:	6f 01       	movw	r12, r30
    2006:	81 11       	cpse	r24, r1
    2008:	c1 cf       	rjmp	.-126    	; 0x1f8c <vfprintf+0x5c>
    200a:	98 2f       	mov	r25, r24
    200c:	9f 7d       	andi	r25, 0xDF	; 223
    200e:	95 54       	subi	r25, 0x45	; 69
    2010:	93 30       	cpi	r25, 0x03	; 3
    2012:	28 f4       	brcc	.+10     	; 0x201e <vfprintf+0xee>
    2014:	0c 5f       	subi	r16, 0xFC	; 252
    2016:	1f 4f       	sbci	r17, 0xFF	; 255
    2018:	ff e3       	ldi	r31, 0x3F	; 63
    201a:	f9 83       	std	Y+1, r31	; 0x01
    201c:	0d c0       	rjmp	.+26     	; 0x2038 <vfprintf+0x108>
    201e:	83 36       	cpi	r24, 0x63	; 99
    2020:	31 f0       	breq	.+12     	; 0x202e <vfprintf+0xfe>
    2022:	83 37       	cpi	r24, 0x73	; 115
    2024:	71 f0       	breq	.+28     	; 0x2042 <vfprintf+0x112>
    2026:	83 35       	cpi	r24, 0x53	; 83
    2028:	09 f0       	breq	.+2      	; 0x202c <vfprintf+0xfc>
    202a:	5b c0       	rjmp	.+182    	; 0x20e2 <vfprintf+0x1b2>
    202c:	22 c0       	rjmp	.+68     	; 0x2072 <vfprintf+0x142>
    202e:	f8 01       	movw	r30, r16
    2030:	80 81       	ld	r24, Z
    2032:	89 83       	std	Y+1, r24	; 0x01
    2034:	0e 5f       	subi	r16, 0xFE	; 254
    2036:	1f 4f       	sbci	r17, 0xFF	; 255
    2038:	44 24       	eor	r4, r4
    203a:	43 94       	inc	r4
    203c:	51 2c       	mov	r5, r1
    203e:	54 01       	movw	r10, r8
    2040:	15 c0       	rjmp	.+42     	; 0x206c <vfprintf+0x13c>
    2042:	38 01       	movw	r6, r16
    2044:	f2 e0       	ldi	r31, 0x02	; 2
    2046:	6f 0e       	add	r6, r31
    2048:	71 1c       	adc	r7, r1
    204a:	f8 01       	movw	r30, r16
    204c:	a0 80       	ld	r10, Z
    204e:	b1 80       	ldd	r11, Z+1	; 0x01
    2050:	26 ff       	sbrs	r18, 6
    2052:	03 c0       	rjmp	.+6      	; 0x205a <vfprintf+0x12a>
    2054:	65 2d       	mov	r22, r5
    2056:	70 e0       	ldi	r23, 0x00	; 0
    2058:	02 c0       	rjmp	.+4      	; 0x205e <vfprintf+0x12e>
    205a:	6f ef       	ldi	r22, 0xFF	; 255
    205c:	7f ef       	ldi	r23, 0xFF	; 255
    205e:	c5 01       	movw	r24, r10
    2060:	2c 87       	std	Y+12, r18	; 0x0c
    2062:	0e 94 75 11 	call	0x22ea	; 0x22ea <strnlen>
    2066:	2c 01       	movw	r4, r24
    2068:	83 01       	movw	r16, r6
    206a:	2c 85       	ldd	r18, Y+12	; 0x0c
    206c:	2f 77       	andi	r18, 0x7F	; 127
    206e:	22 2e       	mov	r2, r18
    2070:	17 c0       	rjmp	.+46     	; 0x20a0 <vfprintf+0x170>
    2072:	38 01       	movw	r6, r16
    2074:	f2 e0       	ldi	r31, 0x02	; 2
    2076:	6f 0e       	add	r6, r31
    2078:	71 1c       	adc	r7, r1
    207a:	f8 01       	movw	r30, r16
    207c:	a0 80       	ld	r10, Z
    207e:	b1 80       	ldd	r11, Z+1	; 0x01
    2080:	26 ff       	sbrs	r18, 6
    2082:	03 c0       	rjmp	.+6      	; 0x208a <vfprintf+0x15a>
    2084:	65 2d       	mov	r22, r5
    2086:	70 e0       	ldi	r23, 0x00	; 0
    2088:	02 c0       	rjmp	.+4      	; 0x208e <vfprintf+0x15e>
    208a:	6f ef       	ldi	r22, 0xFF	; 255
    208c:	7f ef       	ldi	r23, 0xFF	; 255
    208e:	c5 01       	movw	r24, r10
    2090:	2c 87       	std	Y+12, r18	; 0x0c
    2092:	0e 94 6a 11 	call	0x22d4	; 0x22d4 <strnlen_P>
    2096:	2c 01       	movw	r4, r24
    2098:	2c 85       	ldd	r18, Y+12	; 0x0c
    209a:	20 68       	ori	r18, 0x80	; 128
    209c:	22 2e       	mov	r2, r18
    209e:	83 01       	movw	r16, r6
    20a0:	23 fc       	sbrc	r2, 3
    20a2:	1b c0       	rjmp	.+54     	; 0x20da <vfprintf+0x1aa>
    20a4:	83 2d       	mov	r24, r3
    20a6:	90 e0       	ldi	r25, 0x00	; 0
    20a8:	48 16       	cp	r4, r24
    20aa:	59 06       	cpc	r5, r25
    20ac:	b0 f4       	brcc	.+44     	; 0x20da <vfprintf+0x1aa>
    20ae:	b7 01       	movw	r22, r14
    20b0:	80 e2       	ldi	r24, 0x20	; 32
    20b2:	90 e0       	ldi	r25, 0x00	; 0
    20b4:	0e 94 30 0f 	call	0x1e60	; 0x1e60 <fputc>
    20b8:	3a 94       	dec	r3
    20ba:	f4 cf       	rjmp	.-24     	; 0x20a4 <vfprintf+0x174>
    20bc:	f5 01       	movw	r30, r10
    20be:	27 fc       	sbrc	r2, 7
    20c0:	85 91       	lpm	r24, Z+
    20c2:	27 fe       	sbrs	r2, 7
    20c4:	81 91       	ld	r24, Z+
    20c6:	5f 01       	movw	r10, r30
    20c8:	b7 01       	movw	r22, r14
    20ca:	90 e0       	ldi	r25, 0x00	; 0
    20cc:	0e 94 30 0f 	call	0x1e60	; 0x1e60 <fputc>
    20d0:	31 10       	cpse	r3, r1
    20d2:	3a 94       	dec	r3
    20d4:	f1 e0       	ldi	r31, 0x01	; 1
    20d6:	4f 1a       	sub	r4, r31
    20d8:	51 08       	sbc	r5, r1
    20da:	41 14       	cp	r4, r1
    20dc:	51 04       	cpc	r5, r1
    20de:	71 f7       	brne	.-36     	; 0x20bc <vfprintf+0x18c>
    20e0:	e5 c0       	rjmp	.+458    	; 0x22ac <vfprintf+0x37c>
    20e2:	84 36       	cpi	r24, 0x64	; 100
    20e4:	11 f0       	breq	.+4      	; 0x20ea <vfprintf+0x1ba>
    20e6:	89 36       	cpi	r24, 0x69	; 105
    20e8:	39 f5       	brne	.+78     	; 0x2138 <vfprintf+0x208>
    20ea:	f8 01       	movw	r30, r16
    20ec:	27 ff       	sbrs	r18, 7
    20ee:	07 c0       	rjmp	.+14     	; 0x20fe <vfprintf+0x1ce>
    20f0:	60 81       	ld	r22, Z
    20f2:	71 81       	ldd	r23, Z+1	; 0x01
    20f4:	82 81       	ldd	r24, Z+2	; 0x02
    20f6:	93 81       	ldd	r25, Z+3	; 0x03
    20f8:	0c 5f       	subi	r16, 0xFC	; 252
    20fa:	1f 4f       	sbci	r17, 0xFF	; 255
    20fc:	08 c0       	rjmp	.+16     	; 0x210e <vfprintf+0x1de>
    20fe:	60 81       	ld	r22, Z
    2100:	71 81       	ldd	r23, Z+1	; 0x01
    2102:	88 27       	eor	r24, r24
    2104:	77 fd       	sbrc	r23, 7
    2106:	80 95       	com	r24
    2108:	98 2f       	mov	r25, r24
    210a:	0e 5f       	subi	r16, 0xFE	; 254
    210c:	1f 4f       	sbci	r17, 0xFF	; 255
    210e:	2f 76       	andi	r18, 0x6F	; 111
    2110:	b2 2e       	mov	r11, r18
    2112:	97 ff       	sbrs	r25, 7
    2114:	09 c0       	rjmp	.+18     	; 0x2128 <vfprintf+0x1f8>
    2116:	90 95       	com	r25
    2118:	80 95       	com	r24
    211a:	70 95       	com	r23
    211c:	61 95       	neg	r22
    211e:	7f 4f       	sbci	r23, 0xFF	; 255
    2120:	8f 4f       	sbci	r24, 0xFF	; 255
    2122:	9f 4f       	sbci	r25, 0xFF	; 255
    2124:	20 68       	ori	r18, 0x80	; 128
    2126:	b2 2e       	mov	r11, r18
    2128:	2a e0       	ldi	r18, 0x0A	; 10
    212a:	30 e0       	ldi	r19, 0x00	; 0
    212c:	a4 01       	movw	r20, r8
    212e:	0e 94 80 11 	call	0x2300	; 0x2300 <__ultoa_invert>
    2132:	a8 2e       	mov	r10, r24
    2134:	a8 18       	sub	r10, r8
    2136:	44 c0       	rjmp	.+136    	; 0x21c0 <vfprintf+0x290>
    2138:	85 37       	cpi	r24, 0x75	; 117
    213a:	29 f4       	brne	.+10     	; 0x2146 <vfprintf+0x216>
    213c:	2f 7e       	andi	r18, 0xEF	; 239
    213e:	b2 2e       	mov	r11, r18
    2140:	2a e0       	ldi	r18, 0x0A	; 10
    2142:	30 e0       	ldi	r19, 0x00	; 0
    2144:	25 c0       	rjmp	.+74     	; 0x2190 <vfprintf+0x260>
    2146:	f2 2f       	mov	r31, r18
    2148:	f9 7f       	andi	r31, 0xF9	; 249
    214a:	bf 2e       	mov	r11, r31
    214c:	8f 36       	cpi	r24, 0x6F	; 111
    214e:	c1 f0       	breq	.+48     	; 0x2180 <vfprintf+0x250>
    2150:	18 f4       	brcc	.+6      	; 0x2158 <vfprintf+0x228>
    2152:	88 35       	cpi	r24, 0x58	; 88
    2154:	79 f0       	breq	.+30     	; 0x2174 <vfprintf+0x244>
    2156:	b4 c0       	rjmp	.+360    	; 0x22c0 <vfprintf+0x390>
    2158:	80 37       	cpi	r24, 0x70	; 112
    215a:	19 f0       	breq	.+6      	; 0x2162 <vfprintf+0x232>
    215c:	88 37       	cpi	r24, 0x78	; 120
    215e:	21 f0       	breq	.+8      	; 0x2168 <vfprintf+0x238>
    2160:	af c0       	rjmp	.+350    	; 0x22c0 <vfprintf+0x390>
    2162:	2f 2f       	mov	r18, r31
    2164:	20 61       	ori	r18, 0x10	; 16
    2166:	b2 2e       	mov	r11, r18
    2168:	b4 fe       	sbrs	r11, 4
    216a:	0d c0       	rjmp	.+26     	; 0x2186 <vfprintf+0x256>
    216c:	8b 2d       	mov	r24, r11
    216e:	84 60       	ori	r24, 0x04	; 4
    2170:	b8 2e       	mov	r11, r24
    2172:	09 c0       	rjmp	.+18     	; 0x2186 <vfprintf+0x256>
    2174:	24 ff       	sbrs	r18, 4
    2176:	0a c0       	rjmp	.+20     	; 0x218c <vfprintf+0x25c>
    2178:	9f 2f       	mov	r25, r31
    217a:	96 60       	ori	r25, 0x06	; 6
    217c:	b9 2e       	mov	r11, r25
    217e:	06 c0       	rjmp	.+12     	; 0x218c <vfprintf+0x25c>
    2180:	28 e0       	ldi	r18, 0x08	; 8
    2182:	30 e0       	ldi	r19, 0x00	; 0
    2184:	05 c0       	rjmp	.+10     	; 0x2190 <vfprintf+0x260>
    2186:	20 e1       	ldi	r18, 0x10	; 16
    2188:	30 e0       	ldi	r19, 0x00	; 0
    218a:	02 c0       	rjmp	.+4      	; 0x2190 <vfprintf+0x260>
    218c:	20 e1       	ldi	r18, 0x10	; 16
    218e:	32 e0       	ldi	r19, 0x02	; 2
    2190:	f8 01       	movw	r30, r16
    2192:	b7 fe       	sbrs	r11, 7
    2194:	07 c0       	rjmp	.+14     	; 0x21a4 <vfprintf+0x274>
    2196:	60 81       	ld	r22, Z
    2198:	71 81       	ldd	r23, Z+1	; 0x01
    219a:	82 81       	ldd	r24, Z+2	; 0x02
    219c:	93 81       	ldd	r25, Z+3	; 0x03
    219e:	0c 5f       	subi	r16, 0xFC	; 252
    21a0:	1f 4f       	sbci	r17, 0xFF	; 255
    21a2:	06 c0       	rjmp	.+12     	; 0x21b0 <vfprintf+0x280>
    21a4:	60 81       	ld	r22, Z
    21a6:	71 81       	ldd	r23, Z+1	; 0x01
    21a8:	80 e0       	ldi	r24, 0x00	; 0
    21aa:	90 e0       	ldi	r25, 0x00	; 0
    21ac:	0e 5f       	subi	r16, 0xFE	; 254
    21ae:	1f 4f       	sbci	r17, 0xFF	; 255
    21b0:	a4 01       	movw	r20, r8
    21b2:	0e 94 80 11 	call	0x2300	; 0x2300 <__ultoa_invert>
    21b6:	a8 2e       	mov	r10, r24
    21b8:	a8 18       	sub	r10, r8
    21ba:	fb 2d       	mov	r31, r11
    21bc:	ff 77       	andi	r31, 0x7F	; 127
    21be:	bf 2e       	mov	r11, r31
    21c0:	b6 fe       	sbrs	r11, 6
    21c2:	0b c0       	rjmp	.+22     	; 0x21da <vfprintf+0x2aa>
    21c4:	2b 2d       	mov	r18, r11
    21c6:	2e 7f       	andi	r18, 0xFE	; 254
    21c8:	a5 14       	cp	r10, r5
    21ca:	50 f4       	brcc	.+20     	; 0x21e0 <vfprintf+0x2b0>
    21cc:	b4 fe       	sbrs	r11, 4
    21ce:	0a c0       	rjmp	.+20     	; 0x21e4 <vfprintf+0x2b4>
    21d0:	b2 fc       	sbrc	r11, 2
    21d2:	08 c0       	rjmp	.+16     	; 0x21e4 <vfprintf+0x2b4>
    21d4:	2b 2d       	mov	r18, r11
    21d6:	2e 7e       	andi	r18, 0xEE	; 238
    21d8:	05 c0       	rjmp	.+10     	; 0x21e4 <vfprintf+0x2b4>
    21da:	7a 2c       	mov	r7, r10
    21dc:	2b 2d       	mov	r18, r11
    21de:	03 c0       	rjmp	.+6      	; 0x21e6 <vfprintf+0x2b6>
    21e0:	7a 2c       	mov	r7, r10
    21e2:	01 c0       	rjmp	.+2      	; 0x21e6 <vfprintf+0x2b6>
    21e4:	75 2c       	mov	r7, r5
    21e6:	24 ff       	sbrs	r18, 4
    21e8:	0d c0       	rjmp	.+26     	; 0x2204 <vfprintf+0x2d4>
    21ea:	fe 01       	movw	r30, r28
    21ec:	ea 0d       	add	r30, r10
    21ee:	f1 1d       	adc	r31, r1
    21f0:	80 81       	ld	r24, Z
    21f2:	80 33       	cpi	r24, 0x30	; 48
    21f4:	11 f4       	brne	.+4      	; 0x21fa <vfprintf+0x2ca>
    21f6:	29 7e       	andi	r18, 0xE9	; 233
    21f8:	09 c0       	rjmp	.+18     	; 0x220c <vfprintf+0x2dc>
    21fa:	22 ff       	sbrs	r18, 2
    21fc:	06 c0       	rjmp	.+12     	; 0x220a <vfprintf+0x2da>
    21fe:	73 94       	inc	r7
    2200:	73 94       	inc	r7
    2202:	04 c0       	rjmp	.+8      	; 0x220c <vfprintf+0x2dc>
    2204:	82 2f       	mov	r24, r18
    2206:	86 78       	andi	r24, 0x86	; 134
    2208:	09 f0       	breq	.+2      	; 0x220c <vfprintf+0x2dc>
    220a:	73 94       	inc	r7
    220c:	23 fd       	sbrc	r18, 3
    220e:	13 c0       	rjmp	.+38     	; 0x2236 <vfprintf+0x306>
    2210:	20 ff       	sbrs	r18, 0
    2212:	06 c0       	rjmp	.+12     	; 0x2220 <vfprintf+0x2f0>
    2214:	5a 2c       	mov	r5, r10
    2216:	73 14       	cp	r7, r3
    2218:	18 f4       	brcc	.+6      	; 0x2220 <vfprintf+0x2f0>
    221a:	53 0c       	add	r5, r3
    221c:	57 18       	sub	r5, r7
    221e:	73 2c       	mov	r7, r3
    2220:	73 14       	cp	r7, r3
    2222:	68 f4       	brcc	.+26     	; 0x223e <vfprintf+0x30e>
    2224:	b7 01       	movw	r22, r14
    2226:	80 e2       	ldi	r24, 0x20	; 32
    2228:	90 e0       	ldi	r25, 0x00	; 0
    222a:	2c 87       	std	Y+12, r18	; 0x0c
    222c:	0e 94 30 0f 	call	0x1e60	; 0x1e60 <fputc>
    2230:	73 94       	inc	r7
    2232:	2c 85       	ldd	r18, Y+12	; 0x0c
    2234:	f5 cf       	rjmp	.-22     	; 0x2220 <vfprintf+0x2f0>
    2236:	73 14       	cp	r7, r3
    2238:	10 f4       	brcc	.+4      	; 0x223e <vfprintf+0x30e>
    223a:	37 18       	sub	r3, r7
    223c:	01 c0       	rjmp	.+2      	; 0x2240 <vfprintf+0x310>
    223e:	31 2c       	mov	r3, r1
    2240:	24 ff       	sbrs	r18, 4
    2242:	12 c0       	rjmp	.+36     	; 0x2268 <vfprintf+0x338>
    2244:	b7 01       	movw	r22, r14
    2246:	80 e3       	ldi	r24, 0x30	; 48
    2248:	90 e0       	ldi	r25, 0x00	; 0
    224a:	2c 87       	std	Y+12, r18	; 0x0c
    224c:	0e 94 30 0f 	call	0x1e60	; 0x1e60 <fputc>
    2250:	2c 85       	ldd	r18, Y+12	; 0x0c
    2252:	22 ff       	sbrs	r18, 2
    2254:	17 c0       	rjmp	.+46     	; 0x2284 <vfprintf+0x354>
    2256:	21 ff       	sbrs	r18, 1
    2258:	03 c0       	rjmp	.+6      	; 0x2260 <vfprintf+0x330>
    225a:	88 e5       	ldi	r24, 0x58	; 88
    225c:	90 e0       	ldi	r25, 0x00	; 0
    225e:	02 c0       	rjmp	.+4      	; 0x2264 <vfprintf+0x334>
    2260:	88 e7       	ldi	r24, 0x78	; 120
    2262:	90 e0       	ldi	r25, 0x00	; 0
    2264:	b7 01       	movw	r22, r14
    2266:	0c c0       	rjmp	.+24     	; 0x2280 <vfprintf+0x350>
    2268:	82 2f       	mov	r24, r18
    226a:	86 78       	andi	r24, 0x86	; 134
    226c:	59 f0       	breq	.+22     	; 0x2284 <vfprintf+0x354>
    226e:	21 fd       	sbrc	r18, 1
    2270:	02 c0       	rjmp	.+4      	; 0x2276 <vfprintf+0x346>
    2272:	80 e2       	ldi	r24, 0x20	; 32
    2274:	01 c0       	rjmp	.+2      	; 0x2278 <vfprintf+0x348>
    2276:	8b e2       	ldi	r24, 0x2B	; 43
    2278:	27 fd       	sbrc	r18, 7
    227a:	8d e2       	ldi	r24, 0x2D	; 45
    227c:	b7 01       	movw	r22, r14
    227e:	90 e0       	ldi	r25, 0x00	; 0
    2280:	0e 94 30 0f 	call	0x1e60	; 0x1e60 <fputc>
    2284:	a5 14       	cp	r10, r5
    2286:	38 f4       	brcc	.+14     	; 0x2296 <vfprintf+0x366>
    2288:	b7 01       	movw	r22, r14
    228a:	80 e3       	ldi	r24, 0x30	; 48
    228c:	90 e0       	ldi	r25, 0x00	; 0
    228e:	0e 94 30 0f 	call	0x1e60	; 0x1e60 <fputc>
    2292:	5a 94       	dec	r5
    2294:	f7 cf       	rjmp	.-18     	; 0x2284 <vfprintf+0x354>
    2296:	aa 94       	dec	r10
    2298:	f4 01       	movw	r30, r8
    229a:	ea 0d       	add	r30, r10
    229c:	f1 1d       	adc	r31, r1
    229e:	80 81       	ld	r24, Z
    22a0:	b7 01       	movw	r22, r14
    22a2:	90 e0       	ldi	r25, 0x00	; 0
    22a4:	0e 94 30 0f 	call	0x1e60	; 0x1e60 <fputc>
    22a8:	a1 10       	cpse	r10, r1
    22aa:	f5 cf       	rjmp	.-22     	; 0x2296 <vfprintf+0x366>
    22ac:	33 20       	and	r3, r3
    22ae:	09 f4       	brne	.+2      	; 0x22b2 <vfprintf+0x382>
    22b0:	51 ce       	rjmp	.-862    	; 0x1f54 <vfprintf+0x24>
    22b2:	b7 01       	movw	r22, r14
    22b4:	80 e2       	ldi	r24, 0x20	; 32
    22b6:	90 e0       	ldi	r25, 0x00	; 0
    22b8:	0e 94 30 0f 	call	0x1e60	; 0x1e60 <fputc>
    22bc:	3a 94       	dec	r3
    22be:	f6 cf       	rjmp	.-20     	; 0x22ac <vfprintf+0x37c>
    22c0:	f7 01       	movw	r30, r14
    22c2:	86 81       	ldd	r24, Z+6	; 0x06
    22c4:	97 81       	ldd	r25, Z+7	; 0x07
    22c6:	02 c0       	rjmp	.+4      	; 0x22cc <vfprintf+0x39c>
    22c8:	8f ef       	ldi	r24, 0xFF	; 255
    22ca:	9f ef       	ldi	r25, 0xFF	; 255
    22cc:	2c 96       	adiw	r28, 0x0c	; 12
    22ce:	e2 e1       	ldi	r30, 0x12	; 18
    22d0:	0c 94 fa 11 	jmp	0x23f4	; 0x23f4 <__epilogue_restores__>

000022d4 <strnlen_P>:
    22d4:	fc 01       	movw	r30, r24
    22d6:	05 90       	lpm	r0, Z+
    22d8:	61 50       	subi	r22, 0x01	; 1
    22da:	70 40       	sbci	r23, 0x00	; 0
    22dc:	01 10       	cpse	r0, r1
    22de:	d8 f7       	brcc	.-10     	; 0x22d6 <strnlen_P+0x2>
    22e0:	80 95       	com	r24
    22e2:	90 95       	com	r25
    22e4:	8e 0f       	add	r24, r30
    22e6:	9f 1f       	adc	r25, r31
    22e8:	08 95       	ret

000022ea <strnlen>:
    22ea:	fc 01       	movw	r30, r24
    22ec:	61 50       	subi	r22, 0x01	; 1
    22ee:	70 40       	sbci	r23, 0x00	; 0
    22f0:	01 90       	ld	r0, Z+
    22f2:	01 10       	cpse	r0, r1
    22f4:	d8 f7       	brcc	.-10     	; 0x22ec <strnlen+0x2>
    22f6:	80 95       	com	r24
    22f8:	90 95       	com	r25
    22fa:	8e 0f       	add	r24, r30
    22fc:	9f 1f       	adc	r25, r31
    22fe:	08 95       	ret

00002300 <__ultoa_invert>:
    2300:	fa 01       	movw	r30, r20
    2302:	aa 27       	eor	r26, r26
    2304:	28 30       	cpi	r18, 0x08	; 8
    2306:	51 f1       	breq	.+84     	; 0x235c <__ultoa_invert+0x5c>
    2308:	20 31       	cpi	r18, 0x10	; 16
    230a:	81 f1       	breq	.+96     	; 0x236c <__ultoa_invert+0x6c>
    230c:	e8 94       	clt
    230e:	6f 93       	push	r22
    2310:	6e 7f       	andi	r22, 0xFE	; 254
    2312:	6e 5f       	subi	r22, 0xFE	; 254
    2314:	7f 4f       	sbci	r23, 0xFF	; 255
    2316:	8f 4f       	sbci	r24, 0xFF	; 255
    2318:	9f 4f       	sbci	r25, 0xFF	; 255
    231a:	af 4f       	sbci	r26, 0xFF	; 255
    231c:	b1 e0       	ldi	r27, 0x01	; 1
    231e:	3e d0       	rcall	.+124    	; 0x239c <__ultoa_invert+0x9c>
    2320:	b4 e0       	ldi	r27, 0x04	; 4
    2322:	3c d0       	rcall	.+120    	; 0x239c <__ultoa_invert+0x9c>
    2324:	67 0f       	add	r22, r23
    2326:	78 1f       	adc	r23, r24
    2328:	89 1f       	adc	r24, r25
    232a:	9a 1f       	adc	r25, r26
    232c:	a1 1d       	adc	r26, r1
    232e:	68 0f       	add	r22, r24
    2330:	79 1f       	adc	r23, r25
    2332:	8a 1f       	adc	r24, r26
    2334:	91 1d       	adc	r25, r1
    2336:	a1 1d       	adc	r26, r1
    2338:	6a 0f       	add	r22, r26
    233a:	71 1d       	adc	r23, r1
    233c:	81 1d       	adc	r24, r1
    233e:	91 1d       	adc	r25, r1
    2340:	a1 1d       	adc	r26, r1
    2342:	20 d0       	rcall	.+64     	; 0x2384 <__ultoa_invert+0x84>
    2344:	09 f4       	brne	.+2      	; 0x2348 <__ultoa_invert+0x48>
    2346:	68 94       	set
    2348:	3f 91       	pop	r19
    234a:	2a e0       	ldi	r18, 0x0A	; 10
    234c:	26 9f       	mul	r18, r22
    234e:	11 24       	eor	r1, r1
    2350:	30 19       	sub	r19, r0
    2352:	30 5d       	subi	r19, 0xD0	; 208
    2354:	31 93       	st	Z+, r19
    2356:	de f6       	brtc	.-74     	; 0x230e <__ultoa_invert+0xe>
    2358:	cf 01       	movw	r24, r30
    235a:	08 95       	ret
    235c:	46 2f       	mov	r20, r22
    235e:	47 70       	andi	r20, 0x07	; 7
    2360:	40 5d       	subi	r20, 0xD0	; 208
    2362:	41 93       	st	Z+, r20
    2364:	b3 e0       	ldi	r27, 0x03	; 3
    2366:	0f d0       	rcall	.+30     	; 0x2386 <__ultoa_invert+0x86>
    2368:	c9 f7       	brne	.-14     	; 0x235c <__ultoa_invert+0x5c>
    236a:	f6 cf       	rjmp	.-20     	; 0x2358 <__ultoa_invert+0x58>
    236c:	46 2f       	mov	r20, r22
    236e:	4f 70       	andi	r20, 0x0F	; 15
    2370:	40 5d       	subi	r20, 0xD0	; 208
    2372:	4a 33       	cpi	r20, 0x3A	; 58
    2374:	18 f0       	brcs	.+6      	; 0x237c <__ultoa_invert+0x7c>
    2376:	49 5d       	subi	r20, 0xD9	; 217
    2378:	31 fd       	sbrc	r19, 1
    237a:	40 52       	subi	r20, 0x20	; 32
    237c:	41 93       	st	Z+, r20
    237e:	02 d0       	rcall	.+4      	; 0x2384 <__ultoa_invert+0x84>
    2380:	a9 f7       	brne	.-22     	; 0x236c <__ultoa_invert+0x6c>
    2382:	ea cf       	rjmp	.-44     	; 0x2358 <__ultoa_invert+0x58>
    2384:	b4 e0       	ldi	r27, 0x04	; 4
    2386:	a6 95       	lsr	r26
    2388:	97 95       	ror	r25
    238a:	87 95       	ror	r24
    238c:	77 95       	ror	r23
    238e:	67 95       	ror	r22
    2390:	ba 95       	dec	r27
    2392:	c9 f7       	brne	.-14     	; 0x2386 <__ultoa_invert+0x86>
    2394:	00 97       	sbiw	r24, 0x00	; 0
    2396:	61 05       	cpc	r22, r1
    2398:	71 05       	cpc	r23, r1
    239a:	08 95       	ret
    239c:	9b 01       	movw	r18, r22
    239e:	ac 01       	movw	r20, r24
    23a0:	0a 2e       	mov	r0, r26
    23a2:	06 94       	lsr	r0
    23a4:	57 95       	ror	r21
    23a6:	47 95       	ror	r20
    23a8:	37 95       	ror	r19
    23aa:	27 95       	ror	r18
    23ac:	ba 95       	dec	r27
    23ae:	c9 f7       	brne	.-14     	; 0x23a2 <__ultoa_invert+0xa2>
    23b0:	62 0f       	add	r22, r18
    23b2:	73 1f       	adc	r23, r19
    23b4:	84 1f       	adc	r24, r20
    23b6:	95 1f       	adc	r25, r21
    23b8:	a0 1d       	adc	r26, r0
    23ba:	08 95       	ret

000023bc <__prologue_saves__>:
    23bc:	2f 92       	push	r2
    23be:	3f 92       	push	r3
    23c0:	4f 92       	push	r4
    23c2:	5f 92       	push	r5
    23c4:	6f 92       	push	r6
    23c6:	7f 92       	push	r7
    23c8:	8f 92       	push	r8
    23ca:	9f 92       	push	r9
    23cc:	af 92       	push	r10
    23ce:	bf 92       	push	r11
    23d0:	cf 92       	push	r12
    23d2:	df 92       	push	r13
    23d4:	ef 92       	push	r14
    23d6:	ff 92       	push	r15
    23d8:	0f 93       	push	r16
    23da:	1f 93       	push	r17
    23dc:	cf 93       	push	r28
    23de:	df 93       	push	r29
    23e0:	cd b7       	in	r28, 0x3d	; 61
    23e2:	de b7       	in	r29, 0x3e	; 62
    23e4:	ca 1b       	sub	r28, r26
    23e6:	db 0b       	sbc	r29, r27
    23e8:	0f b6       	in	r0, 0x3f	; 63
    23ea:	f8 94       	cli
    23ec:	de bf       	out	0x3e, r29	; 62
    23ee:	0f be       	out	0x3f, r0	; 63
    23f0:	cd bf       	out	0x3d, r28	; 61
    23f2:	09 94       	ijmp

000023f4 <__epilogue_restores__>:
    23f4:	2a 88       	ldd	r2, Y+18	; 0x12
    23f6:	39 88       	ldd	r3, Y+17	; 0x11
    23f8:	48 88       	ldd	r4, Y+16	; 0x10
    23fa:	5f 84       	ldd	r5, Y+15	; 0x0f
    23fc:	6e 84       	ldd	r6, Y+14	; 0x0e
    23fe:	7d 84       	ldd	r7, Y+13	; 0x0d
    2400:	8c 84       	ldd	r8, Y+12	; 0x0c
    2402:	9b 84       	ldd	r9, Y+11	; 0x0b
    2404:	aa 84       	ldd	r10, Y+10	; 0x0a
    2406:	b9 84       	ldd	r11, Y+9	; 0x09
    2408:	c8 84       	ldd	r12, Y+8	; 0x08
    240a:	df 80       	ldd	r13, Y+7	; 0x07
    240c:	ee 80       	ldd	r14, Y+6	; 0x06
    240e:	fd 80       	ldd	r15, Y+5	; 0x05
    2410:	0c 81       	ldd	r16, Y+4	; 0x04
    2412:	1b 81       	ldd	r17, Y+3	; 0x03
    2414:	aa 81       	ldd	r26, Y+2	; 0x02
    2416:	b9 81       	ldd	r27, Y+1	; 0x01
    2418:	ce 0f       	add	r28, r30
    241a:	d1 1d       	adc	r29, r1
    241c:	0f b6       	in	r0, 0x3f	; 63
    241e:	f8 94       	cli
    2420:	de bf       	out	0x3e, r29	; 62
    2422:	0f be       	out	0x3f, r0	; 63
    2424:	cd bf       	out	0x3d, r28	; 61
    2426:	ed 01       	movw	r28, r26
    2428:	08 95       	ret

0000242a <_exit>:
    242a:	f8 94       	cli

0000242c <__stop_program>:
    242c:	ff cf       	rjmp	.-2      	; 0x242c <__stop_program>
